Archive member included because of file (symbol)

lib_arm/libarm.a(board.o)     cpu/arm920t/start.o (start_armboot)
lib_arm/libarm.a(interrupts.o)
                              lib_arm/libarm.a(board.o) (enable_interrupts)
net/libnet.a(eth.o)           lib_arm/libarm.a(board.o) (eth_initialize)
net/libnet.a(net.o)           lib_arm/libarm.a(board.o) (copy_filename)
net/libnet.a(nfs.o)           net/libnet.a(net.o) (NfsStart)
net/libnet.a(rarp.o)          net/libnet.a(net.o) (RarpRequest)
net/libnet.a(tftp.o)          net/libnet.a(net.o) (TftpStart)
net/libnet.a(bootp.o)         net/libnet.a(net.o) (BootpRequest)
drivers/i2c/libi2c.a(s3c24x0_i2c.o)
                              lib_arm/libarm.a(board.o) (i2c_init)
drivers/mtd/nand/libnand.a(nand.o)
                              lib_arm/libarm.a(board.o) (nand_init)
drivers/mtd/nand/libnand.a(nand_base.o)
                              drivers/mtd/nand/libnand.a(nand.o) (nand_scan)
drivers/mtd/nand/libnand.a(nand_bbt.o)
                              drivers/mtd/nand/libnand.a(nand_base.o) (nand_isbad_bbt)
drivers/mtd/nand/libnand.a(nand_ecc.o)
                              drivers/mtd/nand/libnand.a(nand_base.o) (nand_calculate_ecc)
drivers/mtd/nand/libnand.a(nand_ids.o)
                              drivers/mtd/nand/libnand.a(nand_base.o) (nand_flash_ids)
drivers/mtd/nand/libnand.a(s3c2410_nand.o)
                              drivers/mtd/nand/libnand.a(nand.o) (board_nand_init)
drivers/serial/libserial.a(serial_s3c24x0.o)
                              lib_arm/libarm.a(board.o) (serial_init)
drivers/usb/slave/libusb_slave.a(usbinit.o)
                              lib_arm/libarm.a(board.o) (usb_init_slave)
drivers/usb/slave/libusb_slave.a(interrupt.o)
                              drivers/usb/slave/libusb_slave.a(usbinit.o) (Timer_InitEx)
drivers/usb/slave/libusb_slave.a(usblib.o)
                              drivers/usb/slave/libusb_slave.a(usbinit.o) (ConfigEp3DmaMode)
drivers/usb/slave/libusb_slave.a(usbmain.o)
                              drivers/usb/slave/libusb_slave.a(interrupt.o) (IsrUsbd)
drivers/usb/slave/libusb_slave.a(usbout.o)
                              drivers/usb/slave/libusb_slave.a(usbinit.o) (ClearEp3OutPktReady)
drivers/usb/slave/libusb_slave.a(usbsetup.o)
                              drivers/usb/slave/libusb_slave.a(usbmain.o) (InitDescriptorTable)
drivers/usb/slave/libusb_slave.a(usbin.o)
                              drivers/usb/slave/libusb_slave.a(usbmain.o) (PrepareEp1Fifo)
common/libcommon.a(cmd_bdinfo.o)
                              (__u_boot_cmd_bdinfo)
common/libcommon.a(cmd_boot.o)
                              (__u_boot_cmd_go)
common/libcommon.a(cmd_bootm.o)
                              lib_arm/libarm.a(board.o) (load_addr)
common/libcommon.a(cmd_cache.o)
                              (__u_boot_cmd_icache)
common/libcommon.a(cmd_console.o)
                              (__u_boot_cmd_coninfo)
common/libcommon.a(cmd_date.o)
                              (__u_boot_cmd_date)
common/libcommon.a(cmd_echo.o)
                              (__u_boot_cmd_echo)
common/libcommon.a(cmd_eeprom.o)
                              (__u_boot_cmd_eeprom)
common/libcommon.a(cmd_elf.o)
                              common/libcommon.a(cmd_bootm.o) (do_bootvx)
common/libcommon.a(cmd_exit.o)
                              (__u_boot_cmd_exit)
common/libcommon.a(cmd_fat.o)
                              (__u_boot_cmd_fatload)
common/libcommon.a(cmd_flash.o)
                              (__u_boot_cmd_flinfo)
common/libcommon.a(cmd_help.o)
                              (__u_boot_cmd_help)
common/libcommon.a(cmd_i2c.o)
                              (__u_boot_cmd_i2c)
common/libcommon.a(cmd_itest.o)
                              (__u_boot_cmd_itest)
common/libcommon.a(cmd_jffs2.o)
                              (__u_boot_cmd_fsload)
common/libcommon.a(cmd_load.o)
                              (__u_boot_cmd_loads)
common/libcommon.a(cmd_mem.o)
                              (__u_boot_cmd_md)
common/libcommon.a(cmd_misc.o)
                              (__u_boot_cmd_sleep)
common/libcommon.a(cmd_mmc.o)
                              (__u_boot_cmd_mmc)
common/libcommon.a(cmd_nand.o)
                              (__u_boot_cmd_nand)
common/libcommon.a(cmd_net.o)
                              (__u_boot_cmd_bootp)
common/libcommon.a(cmd_nvedit.o)
                              net/libnet.a(eth.o) (get_env_id)
common/libcommon.a(cmd_reginfo.o)
                              (__u_boot_cmd_reginfo)
common/libcommon.a(cmd_source.o)
                              (__u_boot_cmd_source)
common/libcommon.a(cmd_test.o)
                              (__u_boot_cmd_test)
common/libcommon.a(cmd_usb.o)
                              (__u_boot_cmd_usb)
common/libcommon.a(cmd_usbslave.o)
                              (__u_boot_cmd_usbslave)
common/libcommon.a(cmd_version.o)
                              (__u_boot_cmd_version)
common/libcommon.a(cmd_ximg.o)
                              (__u_boot_cmd_imxtract)
common/libcommon.a(command.o)
                              common/libcommon.a(cmd_i2c.o) (cmd_get_data_size)
common/libcommon.a(console.o)
                              lib_arm/libarm.a(board.o) (printf)
common/libcommon.a(dlmalloc.o)
                              drivers/mtd/nand/libnand.a(nand_base.o) (free)
common/libcommon.a(env_common.o)
                              common/libcommon.a(cmd_nvedit.o) (env_get_addr)
common/libcommon.a(env_nand.o)
                              common/libcommon.a(env_common.o) (env_get_char_spec)
common/libcommon.a(exports.o)
                              lib_arm/libarm.a(board.o) (jumptable_init)
common/libcommon.a(flash.o)   common/libcommon.a(cmd_load.o) (addr2info)
common/libcommon.a(hush.o)    common/libcommon.a(cmd_bootm.o) (parse_string_outer)
common/libcommon.a(image.o)   common/libcommon.a(cmd_ximg.o) (image_multi_count)
common/libcommon.a(main.o)    common/libcommon.a(cmd_nvedit.o) (do_run)
common/libcommon.a(s_record.o)
                              common/libcommon.a(cmd_load.o) (srec_decode)
common/libcommon.a(stdio.o)   common/libcommon.a(cmd_console.o) (stdio_get_list)
common/libcommon.a(usb.o)     common/libcommon.a(cmd_usb.o) (usb_get_dev_index)
common/libcommon.a(usb_storage.o)
                              common/libcommon.a(cmd_usb.o) (usb_stor_get_dev)
common/libcommon.a(xyzModem.o)
                              common/libcommon.a(cmd_load.o) (xyzModem_error)
board/tekkamanninja/mini2440/libmini2440.a(mini2440.o)
                              lib_arm/libarm.a(board.o) (dram_init)
board/tekkamanninja/mini2440/libmini2440.a(flash.o)
                              common/libcommon.a(flash.o) (write_buff)
lib_generic/libgeneric.a(crc16.o)
                              common/libcommon.a(xyzModem.o) (cyg_crc16)
lib_generic/libgeneric.a(crc32.o)
                              common/libcommon.a(cmd_i2c.o) (crc32)
lib_generic/libgeneric.a(ctype.o)
                              common/libcommon.a(cmd_jffs2.o) (_ctype)
lib_generic/libgeneric.a(display_options.o)
                              lib_arm/libarm.a(board.o) (print_size)
lib_generic/libgeneric.a(gunzip.o)
                              common/libcommon.a(cmd_bootm.o) (gunzip)
lib_generic/libgeneric.a(net_utils.o)
                              lib_arm/libarm.a(board.o) (string_to_ip)
lib_generic/libgeneric.a(string.o)
                              net/libnet.a(net.o) (strcpy)
lib_generic/libgeneric.a(time.o)
                              drivers/i2c/libi2c.a(s3c24x0_i2c.o) (udelay)
lib_generic/libgeneric.a(vsprintf.o)
                              lib_arm/libarm.a(board.o) (simple_strtoul)
lib_generic/libgeneric.a(zlib.o)
                              lib_generic/libgeneric.a(gunzip.o) (inflateInit2_)
lib_generic/libgeneric.a(div64.o)
                              lib_generic/libgeneric.a(vsprintf.o) (__div64_32)
cpu/arm920t/s3c24x0/libs3c24x0.a(interrupts.o)
                              lib_arm/libarm.a(interrupts.o) (arch_interrupt_init)
cpu/arm920t/s3c24x0/libs3c24x0.a(speed.o)
                              drivers/i2c/libi2c.a(s3c24x0_i2c.o) (get_PCLK)
cpu/arm920t/s3c24x0/libs3c24x0.a(timer.o)
                              drivers/mtd/nand/libnand.a(nand_base.o) (reset_timer)
cpu/arm920t/s3c24x0/libs3c24x0.a(usb_ohci.o)
                              common/libcommon.a(usb.o) (submit_int_msg)
cpu/arm920t/s3c24x0/libs3c24x0.a(mmc.o)
                              common/libcommon.a(cmd_mem.o) (mmc2info)
lib_arm/libarm.a(bootm.o)     common/libcommon.a(cmd_bootm.o) (do_bootm_linux)
lib_arm/libarm.a(cache.o)     common/libcommon.a(cmd_elf.o) (flush_cache)
lib_arm/libarm.a(cache-cp15.o)
                              common/libcommon.a(cmd_cache.o) (icache_enable)
lib_arm/libarm.a(reset.o)     common/libcommon.a(cmd_boot.o) (do_reset)
fs/fat/libfat.a(fat.o)        common/libcommon.a(cmd_fat.o) (file_fat_detectfs)
fs/jffs2/libjffs2.a(jffs2_1pass.o)
                              common/libcommon.a(cmd_jffs2.o) (jffs2_1pass_info)
fs/jffs2/libjffs2.a(compr_rtime.o)
                              fs/jffs2/libjffs2.a(jffs2_1pass.o) (rtime_decompress)
fs/jffs2/libjffs2.a(compr_rubin.o)
                              fs/jffs2/libjffs2.a(jffs2_1pass.o) (dynrubin_decompress)
fs/jffs2/libjffs2.a(compr_zlib.o)
                              fs/jffs2/libjffs2.a(jffs2_1pass.o) (zlib_decompress)
fs/jffs2/libjffs2.a(mini_inflate.o)
                              fs/jffs2/libjffs2.a(compr_zlib.o) (decompress_block)
disk/libdisk.a(part.o)        common/libcommon.a(cmd_usb.o) (dev_print)
disk/libdisk.a(part_dos.o)    disk/libdisk.a(part.o) (test_part_dos)
drivers/mtd/nand/libnand.a(nand_util.o)
                              common/libcommon.a(cmd_nand.o) (nand_read_skip_bad)
drivers/net/libnet.a(dm9000x.o)
                              board/tekkamanninja/mini2440/libmini2440.a(mini2440.o) (dm9000_initialize)
drivers/rtc/librtc.a(date.o)  common/libcommon.a(cmd_date.o) (GregorianDay)
drivers/rtc/librtc.a(s3c24x0_rtc.o)
                              common/libcommon.a(cmd_date.o) (rtc_get)
cpu/arm920t/libarm920t.a(cpu.o)
                              lib_arm/libarm.a(bootm.o) (cleanup_before_linux)
/home/libo/arm/4.4.3/bin/../lib/gcc/arm-none-linux-gnueabi/4.4.3/libgcc.a(_udivsi3.o)
                              net/libnet.a(tftp.o) (__aeabi_uidiv)
/home/libo/arm/4.4.3/bin/../lib/gcc/arm-none-linux-gnueabi/4.4.3/libgcc.a(_divsi3.o)
                              common/libcommon.a(cmd_date.o) (__aeabi_idiv)
/home/libo/arm/4.4.3/bin/../lib/gcc/arm-none-linux-gnueabi/4.4.3/libgcc.a(_lshrdi3.o)
                              drivers/mtd/nand/libnand.a(nand_base.o) (__aeabi_llsr)
/home/libo/arm/4.4.3/bin/../lib/gcc/arm-none-linux-gnueabi/4.4.3/libgcc.a(_ashrdi3.o)
                              drivers/mtd/nand/libnand.a(nand_base.o) (__aeabi_lasr)
/home/libo/arm/4.4.3/bin/../lib/gcc/arm-none-linux-gnueabi/4.4.3/libgcc.a(_ashldi3.o)
                              drivers/mtd/nand/libnand.a(nand_base.o) (__aeabi_llsl)
/home/libo/arm/4.4.3/bin/../lib/gcc/arm-none-linux-gnueabi/4.4.3/libgcc.a(_dvmd_lnx.o)
                              /home/libo/arm/4.4.3/bin/../lib/gcc/arm-none-linux-gnueabi/4.4.3/libgcc.a(_udivsi3.o) (__div0)

Memory Configuration

Name             Origin             Length             Attributes
*default*        0x00000000         0xffffffff

Linker script and memory map

                0x00000000                . = 0x0
                0x00000000                . = ALIGN (0x4)

.text           0x33f80000    0x2ccec
 cpu/arm920t/start.o(.text)
 .text          0x33f80000      0x4e0 cpu/arm920t/start.o
                0x33f80000                _start
                0x33f80044                _armboot_start
                0x33f80048                _bss_start
                0x33f8004c                _bss_end
                0x33f80050                IRQ_STACK_START
                0x33f80054                FIQ_STACK_START
 board/tekkamanninja/mini2440/lowlevel_init.o(.text)
 .text          0x33f804e0       0x70 board/tekkamanninja/mini2440/lowlevel_init.o
                0x33f804e4                lowlevel_init
 board/tekkamanninja/mini2440/nand_read.o(.text)
 .text          0x33f80550      0x2f0 board/tekkamanninja/mini2440/nand_read.o
                0x33f80620                nand_read_ll
 *(.text)
 .text          0x33f80840      0x2a8 lib_arm/libarm.a(board.o)
                0x33f80840                hang
                0x33f8095c                start_armboot
 .text          0x33f80ae8      0x294 lib_arm/libarm.a(interrupts.o)
                0x33f80ae8                enable_interrupts
                0x33f80af8                disable_interrupts
                0x33f80b14                show_regs
                0x33f80c54                bad_mode
                0x33f80c70                do_fiq
                0x33f80c94                do_not_used
                0x33f80cb8                do_data_abort
                0x33f80cdc                do_prefetch_abort
                0x33f80d00                do_software_interrupt
                0x33f80d24                do_undefined_instruction
                0x33f80d48                interrupt_init
 .text          0x33f80d7c      0x75c net/libnet.a(eth.o)
                0x33f80d7c                cpu_eth_init
                0x33f80d84                eth_get_dev
                0x33f80d94                eth_get_dev_by_index
                0x33f80dd8                eth_get_dev_index
                0x33f80e24                eth_halt
                0x33f80e58                eth_send
                0x33f80e8c                eth_rx
                0x33f80eb8                eth_get_name
                0x33f80ed8                eth_get_dev_by_name
                0x33f80f28                eth_set_current
                0x33f80fc8                eth_try_another
                0x33f81078                eth_register
                0x33f81104                eth_setenv_enetaddr
                0x33f8113c                eth_parse_enetaddr
                0x33f8119c                eth_getenv_enetaddr
                0x33f811f4                eth_getenv_enetaddr_by_index
                0x33f81240                eth_init
                0x33f81300                eth_initialize
 .text          0x33f814d8     0x147c net/libnet.a(net.o)
                0x33f814f0                NetSetHandler
                0x33f81500                NetCksumOk
                0x33f81558                NetCksum
                0x33f815a0                copy_filename
                0x33f815f8                string_to_VLAN
                0x33f8164c                getenv_VLAN
                0x33f8165c                NetEthHdrSize
                0x33f816a0                VLAN_to_string
                0x33f816ec                ip_to_string
                0x33f8173c                random_port
                0x33f81758                NetSetTimeout
                0x33f81790                NetSetIP
                0x33f818b0                NetSetEther
                0x33f81998                NetSendPacket
                0x33f8199c                NetReceive
                0x33f81fb0                ArpRequest
                0x33f820b4                PingSend
                0x33f82264                NetSendUDPPacket
                0x33f823c0                NetStartAgain
                0x33f824c8                ArpTimeoutCheck
                0x33f8254c                NetLoop
 .text          0x33f82954      0xfd4 net/libnet.a(nfs.o)
                0x33f83228                NfsStart
 .text          0x33f83928      0x1a0 net/libnet.a(rarp.o)
                0x33f83928                RarpRequest
 .text          0x33f83ac8      0x7c8 net/libnet.a(tftp.o)
                0x33f83c68                TftpStart
 .text          0x33f84290      0x9cc net/libnet.a(bootp.o)
                0x33f84a44                BootpRequest
                0x33f84c10                DhcpRequest
 .text          0x33f84c5c      0x678 drivers/i2c/libi2c.a(s3c24x0_i2c.o)
                0x33f84fc0                i2c_write
                0x33f85060                i2c_read
                0x33f85108                i2c_probe
                0x33f85144                i2c_init
 .text          0x33f852d4       0xb8 drivers/mtd/nand/libnand.a(nand.o)
                0x33f852d4                nand_init
 .text          0x33f8538c     0x3c9c drivers/mtd/nand/libnand.a(nand_base.o)
                0x33f8668c                nand_release
                0x33f866d4                nand_scan_tail
                0x33f86ed4                nand_scan_ident
                0x33f87480                nand_scan
                0x33f87f6c                nand_erase_nand
                0x33f88430                nand_wait_ready
 .text          0x33f89028     0x1890 drivers/mtd/nand/libnand.a(nand_bbt.o)
                0x33f89070                nand_isbad_bbt
                0x33f8a0a8                nand_update_bbt
                0x33f8a37c                nand_scan_bbt
                0x33f8a7f4                nand_default_bbt
 .text          0x33f8a8b8      0x214 drivers/mtd/nand/libnand.a(nand_ecc.o)
                0x33f8a8b8                nand_calculate_ecc
                0x33f8a9ac                nand_correct_data
 .text          0x33f8aacc        0x0 drivers/mtd/nand/libnand.a(nand_ids.o)
 .text          0x33f8aacc       0xfc drivers/mtd/nand/libnand.a(s3c2410_nand.o)
                0x33f8ab54                board_nand_init
 .text          0x33f8abc8      0x154 drivers/serial/libserial.a(serial_s3c24x0.o)
                0x33f8abc8                _serial_getc
                0x33f8abe8                serial_getc
                0x33f8ac0c                serial_putc
                0x33f8ac14                _serial_putc
                0x33f8ac40                _serial_tstc
                0x33f8ac54                serial_tstc
                0x33f8ac68                _serial_puts
                0x33f8ac98                serial_puts
                0x33f8aca0                _serial_setbrg
                0x33f8accc                serial_init
                0x33f8ad14                serial_setbrg
 .text          0x33f8ad1c      0x3ac drivers/usb/slave/libusb_slave.a(usbinit.o)
                0x33f8ad1c                udc_disconnect
                0x33f8ad34                HaltDabort
                0x33f8ad48                HaltPabort
                0x33f8ad5c                HaltSwi
                0x33f8ad70                HaltUndef
                0x33f8ad84                usb_init_slave
                0x33f8adf8                awaitkey
                0x33f8ae68                usb_receive
 .text          0x33f8b0c8      0x2ec drivers/usb/slave/libusb_slave.a(interrupt.o)
                0x33f8b0c8                ClearPending_my
                0x33f8b0dc                Timer_InitEx
                0x33f8b13c                IsrWatchdog
                0x33f8b178                IsrTimer4
                0x33f8b1a0                Isr_Init
                0x33f8b248                IRQ_Handle
                0x33f8b2a4                Dummy_isr
                0x33f8b2cc                Timer_StopEx
                0x33f8b350                Timer_StartEx
 .text          0x33f8b3b4      0x368 drivers/usb/slave/libusb_slave.a(usblib.o)
                0x33f8b3b4                ReconfigUsbd
                0x33f8b4d8                ConfigUsbd
                0x33f8b4f8                RdPktEp0
                0x33f8b520                WrPktEp0
                0x33f8b548                WrPktEp1
                0x33f8b570                WrPktEp2
                0x33f8b598                RdPktEp3
                0x33f8b5c0                RdPktEp4
                0x33f8b5e8                ConfigEp3DmaMode
                0x33f8b6c8                ConfigEp3IntMode
 .text          0x33f8b71c      0x12c drivers/usb/slave/libusb_slave.a(usbmain.o)
                0x33f8b71c                _WrDbgStrFifo
                0x33f8b74c                DbgPrintf
                0x33f8b758                IsrUsbd
                0x33f8b834                UsbdMain
 .text          0x33f8b848      0x3c4 drivers/usb/slave/libusb_slave.a(usbout.o)
                0x33f8b848                ClearEp3OutPktReady
                0x33f8b870                IsrDma2
                0x33f8b9f8                Ep3Handler
 .text          0x33f8bc0c      0x9e8 drivers/usb/slave/libusb_slave.a(usbsetup.o)
                0x33f8bc0c                InitDescriptorTable
                0x33f8bd30                Ep0Handler
 .text          0x33f8c5f4       0xb4 drivers/usb/slave/libusb_slave.a(usbin.o)
                0x33f8c5f4                PrepareEp1Fifo
                0x33f8c664                Ep1Handler
 .text          0x33f8c6a8       0xf0 common/libcommon.a(cmd_bdinfo.o)
                0x33f8c6a8                do_bdinfo
 .text          0x33f8c798       0x94 common/libcommon.a(cmd_boot.o)
                0x33f8c798                do_go_exec
                0x33f8c7b4                do_go
 .text          0x33f8c82c      0xdf8 common/libcommon.a(cmd_bootm.o)
                0x33f8c82c                arch_preboot_os
                0x33f8c82c                __arch_preboot_os
                0x33f8c9c8                do_iminfo
                0x33f8ca28                do_bootd
                0x33f8d18c                do_bootm_subcommand
                0x33f8d344                do_bootm
 .text          0x33f8d624      0x12c common/libcommon.a(cmd_cache.o)
                0x33f8d660                do_dcache
                0x33f8d6d8                do_icache
 .text          0x33f8d750       0xd4 common/libcommon.a(cmd_console.o)
                0x33f8d750                do_coninfo
 .text          0x33f8d824      0x3a8 common/libcommon.a(cmd_date.o)
                0x33f8d824                mk_date
                0x33f8daac                do_date
 .text          0x33f8dbcc       0x80 common/libcommon.a(cmd_echo.o)
                0x33f8dbcc                do_echo
 .text          0x33f8dc4c      0x21c common/libcommon.a(cmd_eeprom.o)
                0x33f8dc4c                eeprom_init
                0x33f8dc5c                eeprom_probe
                0x33f8dc68                eeprom_write
                0x33f8dce0                eeprom_read
                0x33f8dd54                do_eeprom
 .text          0x33f8de68      0x450 common/libcommon.a(cmd_elf.o)
                0x33f8de68                load_elf_image
                0x33f8df00                valid_elf_image
                0x33f8df54                do_bootvx
                0x33f8e1e0                do_bootelf_exec
                0x33f8e220                do_bootelf
 .text          0x33f8e2b8       0x30 common/libcommon.a(cmd_exit.o)
                0x33f8e2b8                do_exit
 .text          0x33f8e2e8      0x360 common/libcommon.a(cmd_fat.o)
                0x33f8e2e8                do_fat_fsinfo
                0x33f8e3c0                do_fat_ls
                0x33f8e4c4                do_fat_fsload
 .text          0x33f8e648      0xb28 common/libcommon.a(cmd_flash.o)
                0x33f8e648                flash_sect_roundb
                0x33f8e8e4                flash_sect_protect
                0x33f8ebe4                do_protect
                0x33f8ee80                flash_sect_erase
                0x33f8ef60                do_flerase
                0x33f8f0f4                do_flinfo
 .text          0x33f8f170       0x48 common/libcommon.a(cmd_help.o)
                0x33f8f170                do_help
 .text          0x33f8f1b8      0xaa0 common/libcommon.a(cmd_i2c.o)
                0x33f8f1b8                __def_i2c_get_bus_speed
                0x33f8f1b8                i2c_get_bus_speed
                0x33f8f1c4                __def_i2c_set_bus_speed
                0x33f8f1c4                i2c_set_bus_speed
                0x33f8f1dc                do_i2c_bus_speed
                0x33f8f498                do_i2c_loop
                0x33f8f5a8                do_i2c_mw
                0x33f8f6d0                do_i2c_probe
                0x33f8f71c                do_i2c_md
                0x33f8f8fc                do_i2c_crc
                0x33f8fa48                do_i2c
 .text          0x33f8fc58      0x310 common/libcommon.a(cmd_itest.o)
                0x33f8fcc4                binary_test
                0x33f8fecc                do_itest
 .text          0x33f8ff68      0x618 common/libcommon.a(cmd_jffs2.o)
                0x33f8fffc                mtdparts_init
                0x33f90394                do_jffs2_fsinfo
                0x33f903f0                do_jffs2_ls
                0x33f90448                do_jffs2_fsload
 .text          0x33f90580      0xf6c common/libcommon.a(cmd_load.o)
                0x33f90580                ktrans
                0x33f905a0                chk1
                0x33f90608                k_data_init
                0x33f90628                k_data_save
                0x33f9064c                k_data_restore
                0x33f90670                k_data_char
                0x33f906e8                send_pad
                0x33f90718                s1_sendpacket
                0x33f90744                handle_send_packet
                0x33f90940                send_nack
                0x33f909b8                send_ack
                0x33f90cb8                do_load_serial_bin
                0x33f91410                do_load_serial
 .text          0x33f914ec      0xa24 common/libcommon.a(cmd_mem.o)
                0x33f914ec                do_mem_crc
                0x33f91598                do_mem_base
                0x33f915dc                do_mem_mtest
                0x33f91784                do_mem_loop
                0x33f9187c                do_mem_cmp
                0x33f91a0c                do_mem_mw
                0x33f91ac8                do_mem_cp
                0x33f91dfc                do_mem_nm
                0x33f91e1c                do_mem_mm
                0x33f91e3c                do_mem_md
 .text          0x33f91f10       0x84 common/libcommon.a(cmd_misc.o)
                0x33f91f10                do_sleep
 .text          0x33f91f94      0x13c common/libcommon.a(cmd_mmc.o)
                0x33f91f94                do_mmc
 .text          0x33f920d0      0xf30 common/libcommon.a(cmd_nand.o)
                0x33f92268                do_nandboot
                0x33f927d8                do_nand
 .text          0x33f93000      0x3b8 common/libcommon.a(cmd_net.o)
                0x33f93000                do_ping
                0x33f9337c                do_nfs
                0x33f93388                do_dhcp
                0x33f93394                do_rarpb
                0x33f933a0                do_tftpb
                0x33f933ac                do_bootp
 .text          0x33f933b8      0x98c common/libcommon.a(cmd_nvedit.o)
                0x33f933b8                get_env_id
                0x33f933c8                envmatch
                0x33f93428                getenv_r
                0x33f934d0                do_saveenv
                0x33f934fc                getenv
                0x33f9356c                _do_setenv
                0x33f93998                do_askenv
                0x33f93afc                do_setenv
                0x33f93b28                setenv
                0x33f93b74                do_editenv
                0x33f93cb4                do_printenv
 .text          0x33f93d44        0x8 common/libcommon.a(cmd_reginfo.o)
                0x33f93d44                do_reginfo
 .text          0x33f93d4c      0x198 common/libcommon.a(cmd_source.o)
                0x33f93d4c                source
                0x33f93e9c                do_source
 .text          0x33f93ee4      0x478 common/libcommon.a(cmd_test.o)
                0x33f93ee4                do_false
                0x33f93eec                do_true
                0x33f93ef4                do_test
 .text          0x33f9435c     0x1124 common/libcommon.a(cmd_usb.o)
                0x33f9435c                usb_get_class_desc
                0x33f943fc                usb_display_ep_desc
                0x33f944b8                usb_display_class_sub
                0x33f94634                do_usbboot
                0x33f949d4                usb_show_tree_graph
                0x33f94bf4                usb_show_tree
                0x33f94c28                usb_display_desc
                0x33f94d58                usb_display_string
                0x33f94d94                usb_display_if_desc
                0x33f94e1c                usb_display_conf_desc
                0x33f94ec8                usb_display_config
                0x33f94f54                do_usb
 .text          0x33f95480      0x14c common/libcommon.a(cmd_usbslave.o)
                0x33f95480                do_usbslave
 .text          0x33f955cc       0x20 common/libcommon.a(cmd_version.o)
                0x33f955cc                do_version
 .text          0x33f955ec      0x2dc common/libcommon.a(cmd_ximg.o)
                0x33f955ec                do_imgextract
 .text          0x33f958c8      0x844 common/libcommon.a(command.o)
                0x33f958c8                cmd_get_data_size
                0x33f95918                cmd_usage
                0x33f95978                var_complete
                0x33f959f8                find_cmd_tbl
                0x33f95a8c                find_cmd
                0x33f95ab4                install_auto_complete
                0x33f95b08                _do_help
                0x33f95c80                cmd_auto_complete
 .text          0x33f9610c      0x548 common/libcommon.a(console.o)
                0x33f961b0                fgetc
                0x33f961d8                ftstc
                0x33f96200                fputc
                0x33f9622c                fputs
                0x33f96258                disable_ctrlc
                0x33f96270                had_ctrlc
                0x33f96280                clear_ctrlc
                0x33f96294                dbg
                0x33f962a0                console_init_f
                0x33f962b0                search_device
                0x33f962d8                console_assign
                0x33f96318                fprintf
                0x33f96360                puts
                0x33f9637c                vprintf
                0x33f963a8                printf
                0x33f963e8                stdio_print_current_devices
                0x33f964a0                console_init_r
                0x33f9657c                serial_printf
                0x33f965bc                putc
                0x33f965d8                tstc
                0x33f965f0                getc
                0x33f96608                ctrlc
 .text          0x33f96654     0x10f8 common/libcommon.a(dlmalloc.o)
                0x33f96654                sbrk
                0x33f9668c                malloc_trim
                0x33f9679c                free
                0x33f969c0                cfree
                0x33f969c4                malloc
                0x33f96fec                memalign
                0x33f970fc                pvalloc
                0x33f97114                valloc
                0x33f97120                malloc_usable_size
                0x33f97164                mallopt
                0x33f971dc                calloc
                0x33f972bc                mem_malloc_init
                0x33f972e4                realloc
 .text          0x33f9774c      0x29c common/libcommon.a(env_common.o)
                0x33f9774c                env_get_char_memory
                0x33f97770                env_get_addr
                0x33f97794                env_get_char
                0x33f977dc                env_complete
                0x33f9791c                env_crc_update
                0x33f97948                set_default_env
                0x33f97990                env_relocate
 .text          0x33f979e8      0x294 common/libcommon.a(env_nand.o)
                0x33f979e8                env_get_char_spec
                0x33f979f4                env_init
                0x33f97a10                writeenv
                0x33f97ac4                readenv
                0x33f97b90                env_relocate_spec
                0x33f97bdc                saveenv
 .text          0x33f97c7c      0x1f4 common/libcommon.a(exports.o)
                0x33f97c80                get_version
                0x33f97c88                jumptable_init
 .text          0x33f97e70      0x3c0 common/libcommon.a(flash.o)
                0x33f97e70                flash_protect
                0x33f97f64                addr2info
                0x33f97fac                flash_perror
                0x33f98070                flash_write
 .text          0x33f98230     0x1e2c common/libcommon.a(hush.o)
                0x33f98230                simple_itoa
                0x33f982b8                mapset
                0x33f982e4                do_showvar
                0x33f983d0                u_boot_hush_start
                0x33f98440                new_pipe
                0x33f986f8                unset_local_var
                0x33f988bc                reserved_word
                0x33f98e2c                set_local_var
                0x33f98fdc                update_ifs_map
                0x33f996e4                parse_file_outer
                0x33f99728                parse_string_outer
 .text          0x33f9a05c      0x970 common/libcommon.a(image.o)
                0x33f9a05c                image_multi_count
                0x33f9a080                get_table_entry_name
                0x33f9a0ac                genimg_get_os_name
                0x33f9a0e4                genimg_get_arch_name
                0x33f9a11c                genimg_get_type_name
                0x33f9a154                genimg_get_comp_name
                0x33f9a18c                genimg_get_image
                0x33f9a190                genimg_has_config
                0x33f9a198                get_table_entry_id
                0x33f9a1e4                genimg_get_comp_id
                0x33f9a1fc                genimg_get_type_id
                0x33f9a214                genimg_get_arch_id
                0x33f9a22c                genimg_get_os_id
                0x33f9a244                genimg_get_format
                0x33f9a298                image_multi_getimg
                0x33f9a340                genimg_print_size
                0x33f9a36c                memmove_wd
                0x33f9a370                getenv_bootm_low
                0x33f9a3a4                getenv_yesno
                0x33f9a3c8                getenv_bootm_size
                0x33f9a3fc                image_print_contents
                0x33f9a6a4                image_check_dcrc
                0x33f9a6f0                image_check_hcrc
                0x33f9a758                boot_get_ramdisk
 .text          0x33f9a9cc     0x1390 common/libcommon.a(main.o)
                0x33f9a9cc                __show_boot_progress
                0x33f9a9cc                show_boot_progress
                0x33f9a9d0                parse_line
                0x33f9aa5c                do_run
                0x33f9aacc                run_command
                0x33f9af14                FriendlyARMMenu
                0x33f9b32c                readline_into_buffer
                0x33f9bc44                readline
                0x33f9bc60                main_loop
 .text          0x33f9bd5c      0x2f4 common/libcommon.a(s_record.o)
                0x33f9bddc                srec_decode
 .text          0x33f9c050      0x17c common/libcommon.a(stdio.o)
                0x33f9c050                stdio_get_list
                0x33f9c05c                stdio_clone
                0x33f9c0a4                stdio_register
                0x33f9c0e4                stdio_init
                0x33f9c180                stdio_get_by_name
 .text          0x33f9c1cc     0x1644 common/libcommon.a(usb.o)
                0x33f9c1cc                usb_disable_asynch
                0x33f9c1e4                usb_maxpacket
                0x33f9c278                usb_set_maxpacket
                0x33f9c2dc                usb_get_dev_index
                0x33f9c30c                usb_hub_reset
                0x33f9c320                usb_hub_allocate
                0x33f9c364                usb_alloc_new_device
                0x33f9c404                usb_parse_config
                0x33f9c554                usb_submit_int_msg
                0x33f9c558                usb_stop
                0x33f9c58c                wait_ms
                0x33f9c5b0                usb_bulk_msg
                0x33f9c614                usb_control_msg
                0x33f9c6e4                usb_get_port_status
                0x33f9c744                usb_get_hub_status
                0x33f9c798                usb_set_port_feature
                0x33f9c7f8                usb_clear_port_feature
                0x33f9c858                usb_clear_hub_feature
                0x33f9c8ac                usb_get_hub_descriptor
                0x33f9c90c                usb_get_string
                0x33f9ca88                usb_string
                0x33f9cb88                usb_get_class_descriptor
                0x33f9cbfc                usb_get_report
                0x33f9cc70                usb_set_idle
                0x33f9ccd4                usb_set_protocol
                0x33f9cd34                usb_set_configuration
                0x33f9cda0                usb_set_interface
                0x33f9ce60                usb_set_address
                0x33f9cea4                usb_get_descriptor
                0x33f9cf10                usb_get_configuration_no
                0x33f9cfa8                usb_clear_halt
                0x33f9d13c                usb_hub_port_connect_change
                0x33f9d228                usb_hub_configure
                0x33f9d430                usb_hub_probe
                0x33f9d48c                usb_new_device
                0x33f9d71c                usb_scan_devices
                0x33f9d794                usb_init
 .text          0x33f9d810     0x155c common/libcommon.a(usb_storage.o)
                0x33f9d810                usb_stor_get_dev
                0x33f9d84c                usb_show_progress
                0x33f9d858                usb_storage_probe
                0x33f9da88                usb_stor_BBB_clear_endpt_stall
                0x33f9dca8                usb_stor_CB_comdat
                0x33f9def4                usb_stor_BBB_comdat
                0x33f9dfe0                usb_stor_BBB_transport
                0x33f9e1a8                usb_stor_CBI_get_status
                0x33f9e288                usb_stor_CB_transport
                0x33f9e474                usb_stor_info
                0x33f9e5cc                usb_stor_get_info
                0x33f9e844                usb_stor_scan
                0x33f9e99c                usb_stor_read
                0x33f9eb84                usb_stor_write
 .text          0x33f9ed6c      0x978 common/libcommon.a(xyzModem.o)
                0x33f9ed6c                parse_num
                0x33f9ee98                xyzModem_error
                0x33f9eeb8                xyzModem_stream_close
                0x33f9ef08                CYGACC_COMM_IF_PUTC
                0x33f9ef10                CYGACC_COMM_IF_GETC_TIMEOUT
                0x33f9ef64                xyzModem_stream_terminate
                0x33f9f314                xyzModem_stream_read
                0x33f9f590                xyzModem_stream_open
 .text          0x33f9f6e4      0x1a8 board/tekkamanninja/mini2440/libmini2440.a(mini2440.o)
                0x33f9f6e4                board_video_init
                0x33f9f73c                dram_init
                0x33f9f75c                board_eth_init
                0x33f9f760                board_init
 .text          0x33f9f88c      0x59c board/tekkamanninja/mini2440/libmini2440.a(flash.o)
                0x33f9f92c                write_buff
                0x33f9fa9c                flash_print_info
                0x33f9fbd8                flash_erase
                0x33f9fd80                flash_init
 .text          0x33f9fe28       0x48 lib_generic/libgeneric.a(crc16.o)
                0x33f9fe28                cyg_crc16
 .text          0x33f9fe70      0x104 lib_generic/libgeneric.a(crc32.o)
                0x33f9fe70                crc32_no_comp
                0x33f9ff5c                crc32
                0x33f9ff70                crc32_wd
 .text          0x33f9ff74        0x0 lib_generic/libgeneric.a(ctype.o)
 .text          0x33f9ff74      0x254 lib_generic/libgeneric.a(display_options.o)
                0x33f9ff74                print_size
                0x33fa0038                display_options
                0x33fa0058                print_buffer
 .text          0x33fa01c8      0x1bc lib_generic/libgeneric.a(gunzip.o)
                0x33fa01c8                zunzip
                0x33fa02b8                gunzip
                0x33fa036c                zfree
                0x33fa0374                zalloc
 .text          0x33fa0384       0x7c lib_generic/libgeneric.a(net_utils.o)
                0x33fa0384                string_to_ip
 .text          0x33fa0400      0x6bc lib_generic/libgeneric.a(string.o)
                0x33fa0400                strcpy
                0x33fa041c                strncpy
                0x33fa0444                strcat
                0x33fa0474                strncat
                0x33fa04d0                strcmp
                0x33fa0500                strncmp
                0x33fa0548                strchr
                0x33fa0574                strrchr
                0x33fa05b0                strlen
                0x33fa05d0                strnlen
                0x33fa05f8                strspn
                0x33fa063c                strpbrk
                0x33fa0674                strtok
                0x33fa0740                strsep
                0x33fa07a4                strswab
                0x33fa07ec                memset
                0x33fa0860                bcopy
                0x33fa0888                memcpy
                0x33fa08f4                memmove
                0x33fa0950                memcmp
                0x33fa0988                memscan
                0x33fa09b8                strstr
                0x33fa0a38                memchr
                0x33fa0a64                strdup
 .text          0x33fa0abc       0x30 lib_generic/libgeneric.a(time.o)
                0x33fa0abc                udelay
 .text          0x33fa0aec      0xdf4 lib_generic/libgeneric.a(vsprintf.o)
                0x33fa0aec                simple_strtoul
                0x33fa0b9c                simple_strtol
                0x33fa0bc4                ustrtoul
                0x33fa0c30                simple_strtoull
                0x33fa0de8                panic
                0x33fa1260                vsprintf
                0x33fa18b8                sprintf
 .text          0x33fa18e0     0x27a0 lib_generic/libgeneric.a(zlib.o)
                0x33fa18e0                inflate_fast
                0x33fa1e3c                inflate_table
                0x33fa23e8                inflateReset
                0x33fa2488                inflateInit2_
                0x33fa2588                inflateInit_
                0x33fa2598                inflateEnd
                0x33fa261c                adler32
                0x33fa292c                zcfree
                0x33fa2934                zcalloc
                0x33fa293c                inflate
 .text          0x33fa4080       0xf8 lib_generic/libgeneric.a(div64.o)
                0x33fa4080                __div64_32
 .text          0x33fa4178       0x18 cpu/arm920t/s3c24x0/libs3c24x0.a(interrupts.o)
                0x33fa4178                do_irq
                0x33fa4188                arch_interrupt_init
 .text          0x33fa4190      0x174 cpu/arm920t/s3c24x0/libs3c24x0.a(speed.o)
                0x33fa4214                get_UCLK
                0x33fa421c                get_FCLK
                0x33fa4224                get_HCLK
                0x33fa42d8                get_PCLK
 .text          0x33fa4304      0x388 cpu/arm920t/s3c24x0/libs3c24x0.a(timer.o)
                0x33fa4304                reset_timer
                0x33fa4330                set_timer
                0x33fa4340                __udelay
                0x33fa43f4                reset_timer_masked
                0x33fa4420                get_timer_masked
                0x33fa4488                get_timer
                0x33fa449c                udelay_masked
                0x33fa4580                get_ticks
                0x33fa45d4                get_tbclk
                0x33fa45dc                reset_cpu
                0x33fa4604                timer_init
 .text          0x33fa468c     0x1690 cpu/arm920t/s3c24x0/libs3c24x0.a(usb_ohci.o)
                0x33fa468c                rh_check_port_status
                0x33fa4738                submit_int_msg
                0x33fa47f8                usb_lowlevel_init
                0x33fa4a54                usb_lowlevel_stop
                0x33fa4b14                sohci_submit_job
                0x33fa5104                submit_common_msg
                0x33fa565c                submit_bulk_msg
                0x33fa5674                submit_control_msg
 .text          0x33fa5d1c      0xaa4 cpu/arm920t/s3c24x0/libs3c24x0.a(mmc.o)
                0x33fa5d1c                mmc_get_dev
                0x33fa5d28                mmc_ident
                0x33fa5d30                mmc2info
                0x33fa5e1c                mmc_init
                0x33fa65c0                mmc_read
                0x33fa66c4                mmc_bread
                0x33fa66e8                mmc_write
 .text          0x33fa67c0      0x1cc lib_arm/libarm.a(bootm.o)
                0x33fa67c0                do_bootm_linux
 .text          0x33fa698c        0x4 lib_arm/libarm.a(cache.o)
                0x33fa698c                flush_cache
 .text          0x33fa6990      0x120 lib_arm/libarm.a(cache-cp15.o)
                0x33fa6990                icache_enable
                0x33fa69d0                icache_disable
                0x33fa6a10                icache_status
                0x33fa6a20                dcache_enable
                0x33fa6a60                dcache_disable
                0x33fa6aa0                dcache_status
 .text          0x33fa6ab0       0x30 lib_arm/libarm.a(reset.o)
                0x33fa6ab0                do_reset
 .text          0x33fa6ae0     0x13b0 fs/fat/libfat.a(fat.o)
                0x33fa6ae0                disk_read
                0x33fa71b0                file_fat_detectfs
                0x33fa7310                do_fat_read
                0x33fa7d58                file_fat_read
                0x33fa7d90                file_fat_ls
                0x33fa7da0                fat_register_device
 .text          0x33fa7e90     0x1c80 fs/jffs2/libjffs2.a(jffs2_1pass.o)
                0x33fa7e90                mkmodestr
                0x33fa808c                jffs2_free_cache
                0x33fa8358                jffs2_1pass_rescan_needed
                0x33fa89cc                jffs2_1pass_info
                0x33fa8eb4                jffs2_1pass_load
                0x33fa9ac8                jffs2_1pass_ls
 .text          0x33fa9b10       0xc8 fs/jffs2/libjffs2.a(compr_rtime.o)
                0x33fa9b10                rtime_decompress
 .text          0x33fa9bd8      0x124 fs/jffs2/libjffs2.a(compr_rubin.o)
                0x33fa9bd8                rubin_do_decompress
                0x33fa9cc0                dynrubin_decompress
 .text          0x33fa9cfc       0x18 fs/jffs2/libjffs2.a(compr_zlib.o)
                0x33fa9cfc                zlib_decompress
 .text          0x33fa9d14      0xd50 fs/jffs2/libjffs2.a(mini_inflate.o)
                0x33fa9d14                cramfs_memset
                0x33fa9d38                pull_bits
                0x33fa9d90                pull_bit
                0x33faa194                decompress_block
 .text          0x33faaa64      0x380 disk/libdisk.a(part.o)
                0x33faaa64                dev_print
                0x33faac64                get_partition_info
                0x33faac88                init_part
                0x33faaca4                get_dev
                0x33faad08                print_part
 .text          0x33faade4      0x558 disk/libdisk.a(part_dos.o)
                0x33faade4                test_part_dos
                0x33fab0c4                get_partition_info_dos
                0x33fab310                print_part_dos
 .text          0x33fab33c      0x828 drivers/mtd/nand/libnand.a(nand_util.o)
                0x33fab3d4                nand_read_skip_bad
                0x33fab594                nand_write_skip_bad
                0x33fab838                nand_erase_opts
 .text          0x33fabb64      0x910 drivers/net/libnet.a(dm9000x.o)
                0x33fabd10                dm9000_initialize
 .text          0x33fac474      0x29c drivers/rtc/librtc.a(date.o)
                0x33fac474                GregorianDay
                0x33fac564                to_tm
                0x33fac678                mktime
 .text          0x33fac710      0x2e0 drivers/rtc/librtc.a(s3c24x0_rtc.o)
                0x33fac73c                rtc_get
                0x33fac900                rtc_set
                0x33fac9c8                rtc_reset
 .text          0x33fac9f0       0x20 cpu/arm920t/libarm920t.a(cpu.o)
                0x33fac9f0                cleanup_before_linux
 .text          0x33faca10       0x1c /home/libo/arm/bootloader/u-boot/lib_arm/eabi_compat.o
                0x33faca10                raise
 .text          0x33faca2c      0x114 /home/libo/arm/4.4.3/bin/../lib/gcc/arm-none-linux-gnueabi/4.4.3/libgcc.a(_udivsi3.o)
                0x33faca2c                __udivsi3
                0x33faca2c                __aeabi_uidiv
                0x33facb28                __aeabi_uidivmod
 .text          0x33facb40      0x144 /home/libo/arm/4.4.3/bin/../lib/gcc/arm-none-linux-gnueabi/4.4.3/libgcc.a(_divsi3.o)
                0x33facb40                __aeabi_idiv
                0x33facb40                __divsi3
                0x33facc6c                __aeabi_idivmod
 .text          0x33facc84       0x1c /home/libo/arm/4.4.3/bin/../lib/gcc/arm-none-linux-gnueabi/4.4.3/libgcc.a(_lshrdi3.o)
                0x33facc84                __aeabi_llsr
                0x33facc84                __lshrdi3
 .text          0x33facca0       0x1c /home/libo/arm/4.4.3/bin/../lib/gcc/arm-none-linux-gnueabi/4.4.3/libgcc.a(_ashrdi3.o)
                0x33facca0                __ashrdi3
                0x33facca0                __aeabi_lasr
 .text          0x33faccbc       0x1c /home/libo/arm/4.4.3/bin/../lib/gcc/arm-none-linux-gnueabi/4.4.3/libgcc.a(_ashldi3.o)
                0x33faccbc                __ashldi3
                0x33faccbc                __aeabi_llsl
 .text          0x33faccd8       0x14 /home/libo/arm/4.4.3/bin/../lib/gcc/arm-none-linux-gnueabi/4.4.3/libgcc.a(_dvmd_lnx.o)
                0x33faccd8                __div0

.glue_7         0x33faccec        0x0
 .glue_7        0x00000000        0x0 linker stubs

.glue_7t        0x33faccec        0x0
 .glue_7t       0x00000000        0x0 linker stubs

.vfp11_veneer   0x33faccec        0x0
 .vfp11_veneer  0x00000000        0x0 linker stubs

.v4_bx          0x33faccec        0x0
 .v4_bx         0x00000000        0x0 linker stubs
                0x33faccec                . = ALIGN (0x4)

.rodata         0x33faccec     0x98e2
 *(SORT(.rodata*))
 .rodata        0x33faccec       0x2c lib_arm/libarm.a(board.o)
                0x33faccec                version_string
 .rodata        0x33facd18       0x80 lib_arm/libarm.a(interrupts.o)
 .rodata        0x33facd98        0x8 drivers/mtd/nand/libnand.a(nand.o)
 .rodata        0x33facda0       0x5c drivers/mtd/nand/libnand.a(nand_base.o)
 .rodata        0x33facdfc      0x100 drivers/mtd/nand/libnand.a(nand_ecc.o)
 .rodata        0x33facefc       0x4c drivers/usb/slave/libusb_slave.a(usbsetup.o)
 .rodata        0x33facf48       0x4c common/libcommon.a(cmd_bootm.o)
 .rodata        0x33facf94       0x20 common/libcommon.a(cmd_jffs2.o)
 .rodata        0x33facfb4       0x58 common/libcommon.a(command.o)
 .rodata        0x33fad00c        0x8 common/libcommon.a(usb_storage.o)
 .rodata        0x33fad014       0x20 common/libcommon.a(xyzModem.o)
 .rodata        0x33fad034      0x200 lib_generic/libgeneric.a(crc16.o)
 .rodata        0x33fad234      0x400 lib_generic/libgeneric.a(crc32.o)
 .rodata        0x33fad634       0x24 lib_generic/libgeneric.a(vsprintf.o)
                0x33fad644                hex_asc
 .rodata        0x33fad658      0x9d0 lib_generic/libgeneric.a(zlib.o)
                0x33fae000                z_errmsg
 .rodata        0x33fae028       0x40 cpu/arm920t/s3c24x0/libs3c24x0.a(usb_ohci.o)
 .rodata        0x33fae068       0xc4 fs/jffs2/libjffs2.a(jffs2_1pass.o)
 .rodata        0x33fae12c       0x14 fs/jffs2/libjffs2.a(mini_inflate.o)
 .rodata        0x33fae140       0x18 disk/libdisk.a(part.o)
 .rodata        0x33fae158       0x30 drivers/rtc/librtc.a(date.o)
 .rodata        0x33fae188        0x7 net/libnet.a(eth.o)
 .rodata        0x33fae18f        0x7 net/libnet.a(net.o)
 .rodata.str1.1
                0x33fae196       0xce lib_arm/libarm.a(board.o)
                                 0xd0 (size before relaxing)
 .rodata.str1.1
                0x33fae264      0x264 lib_arm/libarm.a(interrupts.o)
                                0x268 (size before relaxing)
 .rodata.str1.1
                0x33fae4c8       0xad net/libnet.a(eth.o)
                                 0xc7 (size before relaxing)
 .rodata.str1.1
                0x33fae575      0x20c net/libnet.a(net.o)
                                0x217 (size before relaxing)
 .rodata.str1.1
                0x33fae781      0x193 net/libnet.a(nfs.o)
                                0x1a9 (size before relaxing)
 .rodata.str1.1
                0x33fae914       0x20 net/libnet.a(rarp.o)
                                 0x47 (size before relaxing)
 .rodata.str1.1
                0x33fae934      0x162 net/libnet.a(tftp.o)
                                0x249 (size before relaxing)
 .rodata.str1.1
                0x33faea96      0x100 net/libnet.a(bootp.o)
                                0x13d (size before relaxing)
 .rodata.str1.1
                0x33faeb96       0x78 drivers/i2c/libi2c.a(s3c24x0_i2c.o)
 .rodata.str1.1
                0x33faec0e        0x8 drivers/mtd/nand/libnand.a(nand.o)
 .rodata.str1.1
                0x33faec16      0x2e3 drivers/mtd/nand/libnand.a(nand_base.o)
 .rodata.str1.1
                0x33faeef9      0x309 drivers/mtd/nand/libnand.a(nand_bbt.o)
 .rodata.str1.1
                0x33faf202      0x31f drivers/mtd/nand/libnand.a(nand_ids.o)
                                0x335 (size before relaxing)
 .rodata.str1.1
                0x33faf521      0x181 drivers/usb/slave/libusb_slave.a(usbinit.o)
 .rodata.str1.1
                0x33faf6a2       0x36 drivers/usb/slave/libusb_slave.a(interrupt.o)
 .rodata.str1.1
                0x33faf6d8       0x10 drivers/usb/slave/libusb_slave.a(usbout.o)
 .rodata.str1.1
                0x33faf6e8       0xaa common/libcommon.a(cmd_bdinfo.o)
                                 0xb3 (size before relaxing)
 .rodata.str1.1
                0x33faf792       0xef common/libcommon.a(cmd_boot.o)
                                 0xf0 (size before relaxing)
 .rodata.str1.1
                0x33faf881      0x86b common/libcommon.a(cmd_bootm.o)
                                0x8c8 (size before relaxing)
 .rodata.str1.1
                0x33fb00ec       0xd9 common/libcommon.a(cmd_cache.o)
                                0x107 (size before relaxing)
 .rodata.str1.1
                0x33fb01c5       0x5c common/libcommon.a(cmd_console.o)
                                 0x61 (size before relaxing)
 .rodata.str1.1
                0x33fb0221      0x175 common/libcommon.a(cmd_date.o)
                                0x17b (size before relaxing)
 .rodata.str1.1
                0x33fb0396       0x50 common/libcommon.a(cmd_echo.o)
                                 0x55 (size before relaxing)
 .rodata.str1.1
                0x33fb03e6       0xc1 common/libcommon.a(cmd_eeprom.o)
                                 0xc7 (size before relaxing)
 .rodata.str1.1
                0x33fb04a7      0x278 common/libcommon.a(cmd_elf.o)
                                0x29a (size before relaxing)
 .rodata.str1.1
                0x33fb071f       0x11 common/libcommon.a(cmd_exit.o)
                                 0x12 (size before relaxing)
 .rodata.str1.1
                0x33fb0730      0x396 common/libcommon.a(cmd_fat.o)
                                0x3a5 (size before relaxing)
 .rodata.str1.1
                0x33fb0ac6      0x71d common/libcommon.a(cmd_flash.o)
                                0x730 (size before relaxing)
 .rodata.str1.1
                0x33fb11e3       0x9a common/libcommon.a(cmd_help.o)
                                 0x9b (size before relaxing)
 .rodata.str1.1
                0x33fb127d      0x357 common/libcommon.a(cmd_i2c.o)
                                0x387 (size before relaxing)
 .rodata.str1.1
                0x33fb15d4       0xb3 common/libcommon.a(cmd_itest.o)
                                 0xb5 (size before relaxing)
 .rodata.str1.1
                0x33fb1687      0x2bd common/libcommon.a(cmd_jffs2.o)
                                0x325 (size before relaxing)
 .rodata.str1.1
                0x33fb1944      0x3ae common/libcommon.a(cmd_load.o)
                                0x3c8 (size before relaxing)
 .rodata.str1.1
                0x33fb1cf2      0x4bc common/libcommon.a(cmd_mem.o)
                                0x4f2 (size before relaxing)
 .rodata.str1.1
                0x33fb21ae       0x5f common/libcommon.a(cmd_misc.o)
 .rodata.str1.1
                0x33fb220d       0xc0 common/libcommon.a(cmd_mmc.o)
                                 0xc7 (size before relaxing)
 .rodata.str1.1
                0x33fb22cd      0x821 common/libcommon.a(cmd_nand.o)
                                0x880 (size before relaxing)
 .rodata.str1.1
                0x33fb2aee      0x1e1 common/libcommon.a(cmd_net.o)
                                0x223 (size before relaxing)
 .rodata.str1.1
                0x33fb2ccf      0x4d3 common/libcommon.a(cmd_nvedit.o)
                                0x541 (size before relaxing)
 .rodata.str1.1
                0x33fb31a2       0x23 common/libcommon.a(cmd_reginfo.o)
                                 0x24 (size before relaxing)
 .rodata.str1.1
                0x33fb31c5      0x101 common/libcommon.a(cmd_source.o)
                                0x108 (size before relaxing)
 .rodata.str1.1
                0x33fb32c6       0x6e common/libcommon.a(cmd_test.o)
                                 0x96 (size before relaxing)
 .rodata.str1.1
                0x33fb3334      0x82f common/libcommon.a(cmd_usb.o)
                                0x969 (size before relaxing)
 .rodata.str1.1
                0x33fb3b63       0xa8 common/libcommon.a(cmd_usbslave.o)
                                 0xb4 (size before relaxing)
 .rodata.str1.1
                0x33fb3c0b       0x16 common/libcommon.a(cmd_version.o)
                                 0x24 (size before relaxing)
 .rodata.str1.1
                0x33fb3c21      0x17e common/libcommon.a(cmd_ximg.o)
                                0x22f (size before relaxing)
 .rodata.str1.1
                0x33fb3d9f       0xa9 common/libcommon.a(command.o)
                                 0xc9 (size before relaxing)
 .rodata.str1.1
                0x33fb3e48       0x70 common/libcommon.a(console.o)
                                 0x74 (size before relaxing)
 .rodata.str1.1
                0x33fb3eb8       0x33 common/libcommon.a(env_common.o)
                                 0x37 (size before relaxing)
 .rodata.str1.1
                0x33fb3eeb       0x6e common/libcommon.a(env_nand.o)
                                 0x74 (size before relaxing)
 .rodata.str1.1
                0x33fb3f59       0xf7 common/libcommon.a(flash.o)
                                0x10c (size before relaxing)
 .rodata.str1.1
                0x33fb4050      0x237 common/libcommon.a(hush.o)
                                0x276 (size before relaxing)
 .rodata.str1.1
                0x33fb4287      0x483 common/libcommon.a(image.o)
                                0x523 (size before relaxing)
 .rodata.str1.1
                0x33fb470a      0x372 common/libcommon.a(main.o)
                                0x3ef (size before relaxing)
 .rodata.str1.1
                0x33fb4a7c        0x7 common/libcommon.a(stdio.o)
                                 0x1b (size before relaxing)
 .rodata.str1.1
                0x33fb4a83      0x28b common/libcommon.a(usb.o)
 .rodata.str1.1
                0x33fb4d0e      0x1ed common/libcommon.a(usb_storage.o)
                                0x1ff (size before relaxing)
 .rodata.str1.1
                0x33fb4efb       0xe3 common/libcommon.a(xyzModem.o)
                                 0xe5 (size before relaxing)
 .rodata.str1.1
                0x33fb4fde       0xfd board/tekkamanninja/mini2440/libmini2440.a(flash.o)
                                0x105 (size before relaxing)
 .rodata.str1.1
                0x33fb50db       0x11 lib_generic/libgeneric.a(display_options.o)
                                 0x36 (size before relaxing)
 .rodata.str1.1
                0x33fb50ec       0x85 lib_generic/libgeneric.a(gunzip.o)
 .rodata.str1.1
                0x33fb5171        0xe lib_generic/libgeneric.a(vsprintf.o)
 .rodata.str1.1
                0x33fb517f      0x21c lib_generic/libgeneric.a(zlib.o)
                                0x21d (size before relaxing)
 .rodata.str1.1
                0x33fb539b      0x238 cpu/arm920t/s3c24x0/libs3c24x0.a(usb_ohci.o)
 .rodata.str1.1
                0x33fb55d3      0x334 cpu/arm920t/s3c24x0/libs3c24x0.a(mmc.o)
                                0x343 (size before relaxing)
 .rodata.str1.1
                0x33fb5907       0x42 lib_arm/libarm.a(bootm.o)
                                 0x4b (size before relaxing)
 .rodata.str1.1
                0x33fb5949        0xf lib_arm/libarm.a(reset.o)
 .rodata.str1.1
                0x33fb5958      0x15b fs/fat/libfat.a(fat.o)
                                0x16d (size before relaxing)
 .rodata.str1.1
                0x33fb5ab3      0x3d4 fs/jffs2/libjffs2.a(jffs2_1pass.o)
                                0x3e7 (size before relaxing)
 .rodata.str1.1
                0x33fb5e87      0x1af disk/libdisk.a(part.o)
                                0x1e4 (size before relaxing)
 .rodata.str1.1
                0x33fb6036       0xe5 disk/libdisk.a(part_dos.o)
                                 0xf1 (size before relaxing)
 .rodata.str1.1
                0x33fb611b      0x2ba drivers/mtd/nand/libnand.a(nand_util.o)
                                0x2bc (size before relaxing)
 .rodata.str1.1
                0x33fb63d5      0x1de drivers/net/libnet.a(dm9000x.o)
                                0x1e4 (size before relaxing)
 .rodata.str1.1
                0x33fb65b3       0x1b /home/libo/arm/bootloader/u-boot/lib_arm/eabi_compat.o
                0x33fb65d0                . = ALIGN (0x4)

.data           0x33fb65d0     0x1a40
 *(.data)
 .data          0x33fb65d0        0x0 cpu/arm920t/start.o
 .data          0x33fb65d0        0x0 board/tekkamanninja/mini2440/lowlevel_init.o
 .data          0x33fb65d0        0x0 board/tekkamanninja/mini2440/nand_read.o
 .data          0x33fb65d0       0x30 lib_arm/libarm.a(board.o)
                0x33fb65d0                init_sequence
 .data          0x33fb6600        0x0 lib_arm/libarm.a(interrupts.o)
 .data          0x33fb6600        0x0 net/libnet.a(eth.o)
 .data          0x33fb6600        0xc net/libnet.a(net.o)
                0x33fb6600                NetOurVLAN
                0x33fb6602                NetOurNativeVLAN
                0x33fb6604                NetBcastAddr
 .data          0x33fb660c        0x4 net/libnet.a(nfs.o)
 .data          0x33fb6610        0x0 net/libnet.a(rarp.o)
 .data          0x33fb6610       0x18 net/libnet.a(tftp.o)
                0x33fb661c                TftpRRQTimeoutCountMax
                0x33fb6624                TftpRRQTimeoutMSecs
 .data          0x33fb6628        0x0 net/libnet.a(bootp.o)
 .data          0x33fb6628        0x0 drivers/i2c/libi2c.a(s3c24x0_i2c.o)
 .data          0x33fb6628        0x4 drivers/mtd/nand/libnand.a(nand.o)
                0x33fb6628                nand_curr_device
 .data          0x33fb662c      0x920 drivers/mtd/nand/libnand.a(nand_base.o)
 .data          0x33fb6f4c      0x110 drivers/mtd/nand/libnand.a(nand_bbt.o)
 .data          0x33fb705c        0x0 drivers/mtd/nand/libnand.a(nand_ecc.o)
 .data          0x33fb705c      0x4a0 drivers/mtd/nand/libnand.a(nand_ids.o)
                0x33fb705c                nand_flash_ids
                0x33fb74ac                nand_manuf_ids
 .data          0x33fb74fc        0x4 drivers/mtd/nand/libnand.a(s3c2410_nand.o)
                0x33fb74fc                IO_ADDR_W
 .data          0x33fb7500        0x0 drivers/serial/libserial.a(serial_s3c24x0.o)
 .data          0x33fb7500        0x0 drivers/usb/slave/libusb_slave.a(usbinit.o)
 .data          0x33fb7500        0x0 drivers/usb/slave/libusb_slave.a(interrupt.o)
 .data          0x33fb7500        0x0 drivers/usb/slave/libusb_slave.a(usblib.o)
 .data          0x33fb7500        0x0 drivers/usb/slave/libusb_slave.a(usbmain.o)
 .data          0x33fb7500        0x0 drivers/usb/slave/libusb_slave.a(usbout.o)
 .data          0x33fb7500        0x2 drivers/usb/slave/libusb_slave.a(usbsetup.o)
                0x33fb7500                Selfpwr
                0x33fb7501                Configuration
 .data          0x33fb7502        0x0 drivers/usb/slave/libusb_slave.a(usbin.o)
 .data          0x33fb7502        0x0 common/libcommon.a(cmd_bdinfo.o)
 .data          0x33fb7502        0x0 common/libcommon.a(cmd_boot.o)
 *fill*         0x33fb7502        0x2 00
 .data          0x33fb7504       0xac common/libcommon.a(cmd_bootm.o)
                0x33fb7504                load_addr
                0x33fb7508                cmd_bootm_sub
 .data          0x33fb75b0        0x0 common/libcommon.a(cmd_cache.o)
 .data          0x33fb75b0        0x0 common/libcommon.a(cmd_console.o)
 .data          0x33fb75b0       0x1c common/libcommon.a(cmd_date.o)
                0x33fb75b0                weekdays
 .data          0x33fb75cc        0x0 common/libcommon.a(cmd_echo.o)
 .data          0x33fb75cc        0x0 common/libcommon.a(cmd_eeprom.o)
 .data          0x33fb75cc        0x0 common/libcommon.a(cmd_elf.o)
 .data          0x33fb75cc        0x0 common/libcommon.a(cmd_exit.o)
 .data          0x33fb75cc        0x0 common/libcommon.a(cmd_fat.o)
 .data          0x33fb75cc        0x0 common/libcommon.a(cmd_flash.o)
 .data          0x33fb75cc        0x0 common/libcommon.a(cmd_help.o)
 .data          0x33fb75cc        0x4 common/libcommon.a(cmd_i2c.o)
 .data          0x33fb75d0       0x68 common/libcommon.a(cmd_itest.o)
                0x33fb75d0                op_table
 .data          0x33fb7638        0x0 common/libcommon.a(cmd_jffs2.o)
 .data          0x33fb7638        0x4 common/libcommon.a(cmd_load.o)
 .data          0x33fb763c        0x4 common/libcommon.a(cmd_mem.o)
                0x33fb763c                dp_last_length
 .data          0x33fb7640        0x0 common/libcommon.a(cmd_misc.o)
 .data          0x33fb7640        0x4 common/libcommon.a(cmd_mmc.o)
 .data          0x33fb7644        0x0 common/libcommon.a(cmd_nand.o)
 .data          0x33fb7644        0x0 common/libcommon.a(cmd_net.o)
 .data          0x33fb7644        0x4 common/libcommon.a(cmd_nvedit.o)
 .data          0x33fb7648        0x0 common/libcommon.a(cmd_reginfo.o)
 .data          0x33fb7648        0x0 common/libcommon.a(cmd_source.o)
 .data          0x33fb7648        0x0 common/libcommon.a(cmd_test.o)
 .data          0x33fb7648        0x4 common/libcommon.a(cmd_usb.o)
 .data          0x33fb764c        0x4 common/libcommon.a(cmd_usbslave.o)
                0x33fb764c                g_bUSBWait
 .data          0x33fb7650        0x0 common/libcommon.a(cmd_version.o)
 .data          0x33fb7650        0x0 common/libcommon.a(cmd_ximg.o)
 .data          0x33fb7650        0x0 common/libcommon.a(command.o)
 .data          0x33fb7650        0x0 common/libcommon.a(console.o)
 .data          0x33fb7650      0x414 common/libcommon.a(dlmalloc.o)
 .data          0x33fb7a64      0x130 common/libcommon.a(env_common.o)
                0x33fb7a64                default_environment
 .data          0x33fb7b94        0x4 common/libcommon.a(env_nand.o)
                0x33fb7b94                env_name_spec
 .data          0x33fb7b98        0x0 common/libcommon.a(exports.o)
 .data          0x33fb7b98        0x0 common/libcommon.a(flash.o)
 .data          0x33fb7b98       0x84 common/libcommon.a(hush.o)
 .data          0x33fb7c1c      0x228 common/libcommon.a(image.o)
 .data          0x33fb7e44       0x14 common/libcommon.a(main.o)
 .data          0x33fb7e58        0x0 common/libcommon.a(s_record.o)
 .data          0x33fb7e58        0xc common/libcommon.a(stdio.o)
                0x33fb7e58                stdio_names
 .data          0x33fb7e64        0x0 common/libcommon.a(usb.o)
 .data          0x33fb7e64       0x20 common/libcommon.a(usb_storage.o)
                0x33fb7e64                us_direction
 .data          0x33fb7e84        0x0 common/libcommon.a(xyzModem.o)
 .data          0x33fb7e84        0x0 board/tekkamanninja/mini2440/libmini2440.a(mini2440.o)
 .data          0x33fb7e84        0x0 board/tekkamanninja/mini2440/libmini2440.a(flash.o)
 .data          0x33fb7e84        0x0 lib_generic/libgeneric.a(crc16.o)
 .data          0x33fb7e84        0x0 lib_generic/libgeneric.a(crc32.o)
 .data          0x33fb7e84      0x100 lib_generic/libgeneric.a(ctype.o)
                0x33fb7e84                _ctype
 .data          0x33fb7f84        0x0 lib_generic/libgeneric.a(display_options.o)
 .data          0x33fb7f84        0x0 lib_generic/libgeneric.a(gunzip.o)
 .data          0x33fb7f84        0x0 lib_generic/libgeneric.a(net_utils.o)
 .data          0x33fb7f84        0x0 lib_generic/libgeneric.a(string.o)
 .data          0x33fb7f84        0x0 lib_generic/libgeneric.a(time.o)
 .data          0x33fb7f84        0x0 lib_generic/libgeneric.a(vsprintf.o)
 .data          0x33fb7f84        0x0 lib_generic/libgeneric.a(zlib.o)
 .data          0x33fb7f84        0x0 lib_generic/libgeneric.a(div64.o)
 .data          0x33fb7f84        0x0 cpu/arm920t/s3c24x0/libs3c24x0.a(interrupts.o)
 .data          0x33fb7f84        0x0 cpu/arm920t/s3c24x0/libs3c24x0.a(speed.o)
 .data          0x33fb7f84        0x0 cpu/arm920t/s3c24x0/libs3c24x0.a(timer.o)
 .data          0x33fb7f84       0x50 cpu/arm920t/s3c24x0/libs3c24x0.a(usb_ohci.o)
 .data          0x33fb7fd4        0x2 cpu/arm920t/s3c24x0/libs3c24x0.a(mmc.o)
 .data          0x33fb7fd6        0x0 lib_arm/libarm.a(bootm.o)
 .data          0x33fb7fd6        0x0 lib_arm/libarm.a(cache.o)
 .data          0x33fb7fd6        0x0 lib_arm/libarm.a(cache-cp15.o)
 .data          0x33fb7fd6        0x0 lib_arm/libarm.a(reset.o)
 *fill*         0x33fb7fd6        0x2 00
 .data          0x33fb7fd8        0x4 fs/fat/libfat.a(fat.o)
 .data          0x33fb7fdc        0x4 fs/jffs2/libjffs2.a(jffs2_1pass.o)
 .data          0x33fb7fe0        0x0 fs/jffs2/libjffs2.a(compr_rtime.o)
 .data          0x33fb7fe0        0x0 fs/jffs2/libjffs2.a(compr_rubin.o)
 .data          0x33fb7fe0        0x0 fs/jffs2/libjffs2.a(compr_zlib.o)
 .data          0x33fb7fe0        0x0 fs/jffs2/libjffs2.a(mini_inflate.o)
 .data          0x33fb7fe0        0x0 disk/libdisk.a(part.o)
 .data          0x33fb7fe0        0x0 disk/libdisk.a(part_dos.o)
 .data          0x33fb7fe0        0x0 drivers/mtd/nand/libnand.a(nand_util.o)
 .data          0x33fb7fe0        0x0 drivers/net/libnet.a(dm9000x.o)
 .data          0x33fb7fe0       0x30 drivers/rtc/librtc.a(date.o)
 .data          0x33fb8010        0x0 drivers/rtc/librtc.a(s3c24x0_rtc.o)
 .data          0x33fb8010        0x0 cpu/arm920t/libarm920t.a(cpu.o)
 .data          0x33fb8010        0x0 /home/libo/arm/bootloader/u-boot/lib_arm/eabi_compat.o
 .data          0x33fb8010        0x0 /home/libo/arm/4.4.3/bin/../lib/gcc/arm-none-linux-gnueabi/4.4.3/libgcc.a(_udivsi3.o)
 .data          0x33fb8010        0x0 /home/libo/arm/4.4.3/bin/../lib/gcc/arm-none-linux-gnueabi/4.4.3/libgcc.a(_divsi3.o)
 .data          0x33fb8010        0x0 /home/libo/arm/4.4.3/bin/../lib/gcc/arm-none-linux-gnueabi/4.4.3/libgcc.a(_lshrdi3.o)
 .data          0x33fb8010        0x0 /home/libo/arm/4.4.3/bin/../lib/gcc/arm-none-linux-gnueabi/4.4.3/libgcc.a(_ashrdi3.o)
 .data          0x33fb8010        0x0 /home/libo/arm/4.4.3/bin/../lib/gcc/arm-none-linux-gnueabi/4.4.3/libgcc.a(_ashldi3.o)
 .data          0x33fb8010        0x0 /home/libo/arm/4.4.3/bin/../lib/gcc/arm-none-linux-gnueabi/4.4.3/libgcc.a(_dvmd_lnx.o)
                0x33fb8010                . = ALIGN (0x4)

.got
 *(.got)
                0x33fb8010                . = .
                0x33fb8010                __u_boot_cmd_start = .

.u_boot_cmd     0x33fb8010      0x7c4
 *(.u_boot_cmd)
 .u_boot_cmd    0x33fb8010       0x1c common/libcommon.a(cmd_bdinfo.o)
                0x33fb8010                __u_boot_cmd_bdinfo
 .u_boot_cmd    0x33fb802c       0x38 common/libcommon.a(cmd_boot.o)
                0x33fb802c                __u_boot_cmd_go
                0x33fb8048                __u_boot_cmd_reset
 .u_boot_cmd    0x33fb8064       0x8c common/libcommon.a(cmd_bootm.o)
                0x33fb8064                __u_boot_cmd_bootm
                0x33fb8080                __u_boot_cmd_boot
                0x33fb809c                __u_boot_cmd_bootd
                0x33fb80b8                __u_boot_cmd_iminfo
                0x33fb80d4                __u_boot_cmd_imls
 .u_boot_cmd    0x33fb80f0       0x38 common/libcommon.a(cmd_cache.o)
                0x33fb80f0                __u_boot_cmd_icache
                0x33fb810c                __u_boot_cmd_dcache
 .u_boot_cmd    0x33fb8128       0x1c common/libcommon.a(cmd_console.o)
                0x33fb8128                __u_boot_cmd_coninfo
 .u_boot_cmd    0x33fb8144       0x1c common/libcommon.a(cmd_date.o)
                0x33fb8144                __u_boot_cmd_date
 .u_boot_cmd    0x33fb8160       0x1c common/libcommon.a(cmd_echo.o)
                0x33fb8160                __u_boot_cmd_echo
 .u_boot_cmd    0x33fb817c       0x1c common/libcommon.a(cmd_eeprom.o)
                0x33fb817c                __u_boot_cmd_eeprom
 .u_boot_cmd    0x33fb8198       0x38 common/libcommon.a(cmd_elf.o)
                0x33fb8198                __u_boot_cmd_bootelf
                0x33fb81b4                __u_boot_cmd_bootvx
 .u_boot_cmd    0x33fb81d0       0x1c common/libcommon.a(cmd_exit.o)
                0x33fb81d0                __u_boot_cmd_exit
 .u_boot_cmd    0x33fb81ec       0x54 common/libcommon.a(cmd_fat.o)
                0x33fb81ec                __u_boot_cmd_fatload
                0x33fb8208                __u_boot_cmd_fatls
                0x33fb8224                __u_boot_cmd_fatinfo
 .u_boot_cmd    0x33fb8240       0x54 common/libcommon.a(cmd_flash.o)
                0x33fb8240                __u_boot_cmd_flinfo
                0x33fb825c                __u_boot_cmd_erase
                0x33fb8278                __u_boot_cmd_protect
 .u_boot_cmd    0x33fb8294       0x38 common/libcommon.a(cmd_help.o)
                0x33fb8294                __u_boot_cmd_help
                0x33fb82b0                __u_boot_cmd_question_mark
 .u_boot_cmd    0x33fb82cc       0x1c common/libcommon.a(cmd_i2c.o)
                0x33fb82cc                __u_boot_cmd_i2c
 .u_boot_cmd    0x33fb82e8       0x1c common/libcommon.a(cmd_itest.o)
                0x33fb82e8                __u_boot_cmd_itest
 .u_boot_cmd    0x33fb8304       0x54 common/libcommon.a(cmd_jffs2.o)
                0x33fb8304                __u_boot_cmd_fsload
                0x33fb8320                __u_boot_cmd_ls
                0x33fb833c                __u_boot_cmd_fsinfo
 .u_boot_cmd    0x33fb8358       0x70 common/libcommon.a(cmd_load.o)
                0x33fb8358                __u_boot_cmd_loads
                0x33fb8374                __u_boot_cmd_loadb
                0x33fb8390                __u_boot_cmd_loadx
                0x33fb83ac                __u_boot_cmd_loady
 .u_boot_cmd    0x33fb83c8      0x118 common/libcommon.a(cmd_mem.o)
                0x33fb83c8                __u_boot_cmd_md
                0x33fb83e4                __u_boot_cmd_mm
                0x33fb8400                __u_boot_cmd_nm
                0x33fb841c                __u_boot_cmd_mw
                0x33fb8438                __u_boot_cmd_cp
                0x33fb8454                __u_boot_cmd_cmp
                0x33fb8470                __u_boot_cmd_crc32
                0x33fb848c                __u_boot_cmd_base
                0x33fb84a8                __u_boot_cmd_loop
                0x33fb84c4                __u_boot_cmd_mtest
 .u_boot_cmd    0x33fb84e0       0x1c common/libcommon.a(cmd_misc.o)
                0x33fb84e0                __u_boot_cmd_sleep
 .u_boot_cmd    0x33fb84fc       0x1c common/libcommon.a(cmd_mmc.o)
                0x33fb84fc                __u_boot_cmd_mmc
 .u_boot_cmd    0x33fb8518       0x38 common/libcommon.a(cmd_nand.o)
                0x33fb8518                __u_boot_cmd_nand
                0x33fb8534                __u_boot_cmd_nboot
 .u_boot_cmd    0x33fb8550       0xa8 common/libcommon.a(cmd_net.o)
                0x33fb8550                __u_boot_cmd_bootp
                0x33fb856c                __u_boot_cmd_tftpboot
                0x33fb8588                __u_boot_cmd_rarpboot
                0x33fb85a4                __u_boot_cmd_dhcp
                0x33fb85c0                __u_boot_cmd_nfs
                0x33fb85dc                __u_boot_cmd_ping
 .u_boot_cmd    0x33fb85f8       0xa8 common/libcommon.a(cmd_nvedit.o)
                0x33fb85f8                __u_boot_cmd_saveenv
                0x33fb8614                __u_boot_cmd_editenv
                0x33fb8630                __u_boot_cmd_printenv
                0x33fb864c                __u_boot_cmd_setenv
                0x33fb8668                __u_boot_cmd_askenv
                0x33fb8684                __u_boot_cmd_run
 .u_boot_cmd    0x33fb86a0       0x1c common/libcommon.a(cmd_reginfo.o)
                0x33fb86a0                __u_boot_cmd_reginfo
 .u_boot_cmd    0x33fb86bc       0x1c common/libcommon.a(cmd_source.o)
                0x33fb86bc                __u_boot_cmd_source
 .u_boot_cmd    0x33fb86d8       0x54 common/libcommon.a(cmd_test.o)
                0x33fb86d8                __u_boot_cmd_test
                0x33fb86f4                __u_boot_cmd_false
                0x33fb8710                __u_boot_cmd_true
 .u_boot_cmd    0x33fb872c       0x38 common/libcommon.a(cmd_usb.o)
                0x33fb872c                __u_boot_cmd_usb
                0x33fb8748                __u_boot_cmd_usbboot
 .u_boot_cmd    0x33fb8764       0x1c common/libcommon.a(cmd_usbslave.o)
                0x33fb8764                __u_boot_cmd_usbslave
 .u_boot_cmd    0x33fb8780       0x1c common/libcommon.a(cmd_version.o)
                0x33fb8780                __u_boot_cmd_version
 .u_boot_cmd    0x33fb879c       0x1c common/libcommon.a(cmd_ximg.o)
                0x33fb879c                __u_boot_cmd_imxtract
 .u_boot_cmd    0x33fb87b8       0x1c common/libcommon.a(hush.o)
                0x33fb87b8                __u_boot_cmd_showvar
                0x33fb87d4                __u_boot_cmd_end = .
                0x33fb87d4                . = ALIGN (0x4)
                0x33fb87d4                __bss_start = .

.bss            0x33fb8800    0x42d9c
 *(.bss)
 .bss           0x33fb8800        0x0 cpu/arm920t/start.o
 .bss           0x33fb8800        0x0 board/tekkamanninja/mini2440/lowlevel_init.o
 .bss           0x33fb8800        0x0 board/tekkamanninja/mini2440/nand_read.o
 .bss           0x33fb8800        0x4 lib_arm/libarm.a(board.o)
                0x33fb8800                monitor_flash_len
 .bss           0x33fb8804        0x0 lib_arm/libarm.a(interrupts.o)
 .bss           0x33fb8804       0x14 net/libnet.a(eth.o)
 .bss           0x33fb8818     0x25e4 net/libnet.a(net.o)
                0x33fb8818                NetState
                0x33fb882c                NetIPID
                0x33fb8830                NetOurIP
                0x33fb8834                NetOurEther
                0x33fb883c                NetPingIP
                0x33fb8840                NetRxPacket
                0x33fb8844                NetRxPacketLen
                0x33fb8848                NetArpWaitPacketIP
                0x33fb884c                NetArpWaitPacketMAC
                0x33fb8850                NetArpWaitReplyIP
                0x33fb8854                NetArpWaitTxPacket
                0x33fb8858                NetArpWaitTxPacketSize
                0x33fb885c                NetServerIP
                0x33fb8860                NetServerEther
                0x33fb8868                NetTxPacket
                0x33fb886c                NetOurSubnetMask
                0x33fb8870                NetOurGatewayIP
                0x33fb887c                NetEtherNullAddr
                0x33fb8884                NetArpWaitTry
                0x33fb8888                NetArpWaitTimerStart
                0x33fb8894                NetRestartWrap
                0x33fb889c                PktBuf
                0x33fba6bc                NetRxPackets
                0x33fba6cc                NetArpWaitPacketBuf
                0x33fbacf0                NetBootFileXferSize
                0x33fbacf4                NetOurDNSIP
                0x33fbacf8                NetOurNISDomain
                0x33fbad18                NetOurHostName
                0x33fbad38                NetOurRootPath
                0x33fbad78                NetBootFileSize
                0x33fbad7c                BootFile
 .bss           0x33fbadfc      0x8b0 net/libnet.a(nfs.o)
 .bss           0x33fbb6ac        0x4 net/libnet.a(rarp.o)
                0x33fbb6ac                RarpTry
 .bss           0x33fbb6b0       0xb4 net/libnet.a(tftp.o)
 .bss           0x33fbb764       0x14 net/libnet.a(bootp.o)
                0x33fbb764                dhcp_leasetime
                0x33fbb768                NetDHCPServerIP
                0x33fbb76c                BootpID
                0x33fbb770                dhcp_state
                0x33fbb774                BootpTry
 .bss           0x33fbb778        0x0 drivers/i2c/libi2c.a(s3c24x0_i2c.o)
 .bss           0x33fbb778      0x1d0 drivers/mtd/nand/libnand.a(nand.o)
                0x33fbb778                nand_info
 .bss           0x33fbb948        0x0 drivers/mtd/nand/libnand.a(nand_base.o)
 .bss           0x33fbb948        0x0 drivers/mtd/nand/libnand.a(nand_bbt.o)
 .bss           0x33fbb948        0x0 drivers/mtd/nand/libnand.a(nand_ecc.o)
 .bss           0x33fbb948        0x0 drivers/mtd/nand/libnand.a(nand_ids.o)
 .bss           0x33fbb948        0x0 drivers/mtd/nand/libnand.a(s3c2410_nand.o)
 .bss           0x33fbb948        0x0 drivers/serial/libserial.a(serial_s3c24x0.o)
 .bss           0x33fbb948       0x4c drivers/usb/slave/libusb_slave.a(usbinit.o)
                0x33fbb948                isUsbdSetConfiguration
                0x33fbb94c                download_run
                0x33fbb950                dwUSBBufBase
                0x33fbb954                dwUSBBufReadPtr
                0x33fbb958                dwUSBBufWritePtr
                0x33fbb95c                bDMAPending
                0x33fbb960                tempDownloadAddress
                0x33fbb964                downloadAddress
                0x33fbb968                downPt
                0x33fbb96c                downloadFileSize
                0x33fbb970                dwWillDMACnt
                0x33fbb974                totalDmaCount
                0x33fbb978                restart
                0x33fbb97c                err
                0x33fbb980                menuUsed
                0x33fbb984                run
                0x33fbb988                checkSum
                0x33fbb98c                dwUSBBufSize
                0x33fbb990                consoleNum
 .bss           0x33fbb994       0xd0 drivers/usb/slave/libusb_slave.a(interrupt.o)
                0x33fbb998                g_TimerIntHappen
                0x33fbb99c                isr_handle_array
 .bss           0x33fbba64        0x0 drivers/usb/slave/libusb_slave.a(usblib.o)
 .bss           0x33fbba64     0x1008 drivers/usb/slave/libusb_slave.a(usbmain.o)
                0x33fbba64                dbgStrWrPt
                0x33fbba68                dbgStrFifo
                0x33fbca68                dbgStrRdPt
 .bss           0x33fbca6c       0x20 drivers/usb/slave/libusb_slave.a(usbout.o)
                0x33fbca6c                ep3Buf
 .bss           0x33fbca8c       0x68 drivers/usb/slave/libusb_slave.a(usbsetup.o)
                0x33fbca8c                descDev
                0x33fbcaa0                descConf
                0x33fbcaac                descIf
                0x33fbcab8                descEndpt0
                0x33fbcac0                descEndpt1
                0x33fbcac8                ep0State
                0x33fbcacc                descSetup
                0x33fbcad8                ConfigSet
                0x33fbcad9                Rwuen
                0x33fbcadc                StatusGet
                0x33fbcae4                InterfaceGet
                0x33fbcae8                ep0SubState
                0x33fbcaec                AlterSetting
                0x33fbcaed                device_status
                0x33fbcaee                interface_status
                0x33fbcaef                endpoint0_status
                0x33fbcaf0                endpoint1_status
                0x33fbcaf1                endpoint3_status
 .bss           0x33fbcaf4       0x24 drivers/usb/slave/libusb_slave.a(usbin.o)
                0x33fbcaf4                transferIndex
                0x33fbcaf8                ep1Buf
 .bss           0x33fbcb18        0x0 common/libcommon.a(cmd_bdinfo.o)
 .bss           0x33fbcb18        0x0 common/libcommon.a(cmd_boot.o)
 .bss           0x33fbcb18       0x8c common/libcommon.a(cmd_bootm.o)
 .bss           0x33fbcba4        0x0 common/libcommon.a(cmd_cache.o)
 .bss           0x33fbcba4        0x0 common/libcommon.a(cmd_console.o)
 .bss           0x33fbcba4        0x0 common/libcommon.a(cmd_date.o)
 .bss           0x33fbcba4        0x0 common/libcommon.a(cmd_echo.o)
 .bss           0x33fbcba4        0x0 common/libcommon.a(cmd_eeprom.o)
 .bss           0x33fbcba4        0x0 common/libcommon.a(cmd_elf.o)
 .bss           0x33fbcba4        0x0 common/libcommon.a(cmd_exit.o)
 .bss           0x33fbcba4        0x0 common/libcommon.a(cmd_fat.o)
 .bss           0x33fbcba4        0x0 common/libcommon.a(cmd_flash.o)
 .bss           0x33fbcba4        0x0 common/libcommon.a(cmd_help.o)
 .bss           0x33fbcba4       0x18 common/libcommon.a(cmd_i2c.o)
 .bss           0x33fbcbbc        0x0 common/libcommon.a(cmd_itest.o)
 .bss           0x33fbcbbc        0xc common/libcommon.a(cmd_jffs2.o)
                0x33fbcbc0                current_mtd_dev
                0x33fbcbc4                current_mtd_partnum
 .bss           0x33fbcbc8       0x60 common/libcommon.a(cmd_load.o)
                0x33fbcbd8                os_data_init
                0x33fbcbe8                os_data_char
                0x33fbcbec                his_quote
                0x33fbcbf0                his_pad_count
                0x33fbcbf4                his_pad_char
                0x33fbcbf5                his_eol
                0x33fbcbf8                send_ptr
                0x33fbcbfc                send_parms
 .bss           0x33fbcc28       0x14 common/libcommon.a(cmd_mem.o)
                0x33fbcc2c                mm_last_addr
                0x33fbcc30                mm_last_size
                0x33fbcc34                dp_last_addr
                0x33fbcc38                dp_last_size
 .bss           0x33fbcc3c        0x0 common/libcommon.a(cmd_misc.o)
 .bss           0x33fbcc3c        0x0 common/libcommon.a(cmd_mmc.o)
 .bss           0x33fbcc3c        0x0 common/libcommon.a(cmd_nand.o)
 .bss           0x33fbcc3c        0x0 common/libcommon.a(cmd_net.o)
 .bss           0x33fbcc3c        0x0 common/libcommon.a(cmd_nvedit.o)
 .bss           0x33fbcc3c        0x0 common/libcommon.a(cmd_reginfo.o)
 .bss           0x33fbcc3c        0x0 common/libcommon.a(cmd_source.o)
 .bss           0x33fbcc3c        0x0 common/libcommon.a(cmd_test.o)
 .bss           0x33fbcc3c        0x0 common/libcommon.a(cmd_usb.o)
 .bss           0x33fbcc3c        0x4 common/libcommon.a(cmd_usbslave.o)
                0x33fbcc3c                g_dwDownloadLen
 .bss           0x33fbcc40        0x0 common/libcommon.a(cmd_version.o)
 .bss           0x33fbcc40        0x0 common/libcommon.a(cmd_ximg.o)
 .bss           0x33fbcc40      0x300 common/libcommon.a(command.o)
 .bss           0x33fbcf40        0x8 common/libcommon.a(console.o)
 .bss           0x33fbcf48       0x44 common/libcommon.a(dlmalloc.o)
                0x33fbcf48                mem_malloc_brk
                0x33fbcf4c                mem_malloc_start
                0x33fbcf50                mem_malloc_end
 .bss           0x33fbcf8c        0x0 common/libcommon.a(env_common.o)
 .bss           0x33fbcf8c        0x4 common/libcommon.a(env_nand.o)
                0x33fbcf8c                env_ptr
 .bss           0x33fbcf90        0x0 common/libcommon.a(exports.o)
 .bss           0x33fbcf90        0x0 common/libcommon.a(flash.o)
 .bss           0x33fbcf90      0x258 common/libcommon.a(hush.o)
                0x33fbd1dc                last_return_code
                0x33fbd1e4                nesting_level
 .bss           0x33fbd1e8        0x0 common/libcommon.a(image.o)
 .bss           0x33fbd1e8     0x156c common/libcommon.a(main.o)
                0x33fbd200                hist_num
                0x33fbd204                hist_lines
                0x33fbe604                hist_list
                0x33fbe654                console_buffer
 .bss           0x33fbe754        0x0 common/libcommon.a(s_record.o)
 .bss           0x33fbe754       0x48 common/libcommon.a(stdio.o)
                0x33fbe790                stdio_devices
 .bss           0x33fbe79c     0xaa1c common/libcommon.a(usb.o)
                0x33fc91a8                usb_started
 .bss           0x33fc91b8      0x5b8 common/libcommon.a(usb_storage.o)
 .bss           0x33fc9770      0x43c common/libcommon.a(xyzModem.o)
 .bss           0x33fc9bac        0x0 board/tekkamanninja/mini2440/libmini2440.a(mini2440.o)
 .bss           0x33fc9bac       0xac board/tekkamanninja/mini2440/libmini2440.a(flash.o)
                0x33fc9bac                flash_info
 .bss           0x33fc9c58        0x0 lib_generic/libgeneric.a(crc16.o)
 .bss           0x33fc9c58        0x0 lib_generic/libgeneric.a(crc32.o)
 .bss           0x33fc9c58        0x0 lib_generic/libgeneric.a(ctype.o)
 .bss           0x33fc9c58        0x0 lib_generic/libgeneric.a(display_options.o)
 .bss           0x33fc9c58        0x0 lib_generic/libgeneric.a(gunzip.o)
 .bss           0x33fc9c58        0x0 lib_generic/libgeneric.a(net_utils.o)
 .bss           0x33fc9c58        0x4 lib_generic/libgeneric.a(string.o)
                0x33fc9c58                ___strtok
 .bss           0x33fc9c5c        0x0 lib_generic/libgeneric.a(time.o)
 .bss           0x33fc9c5c        0x0 lib_generic/libgeneric.a(vsprintf.o)
 .bss           0x33fc9c5c        0x0 lib_generic/libgeneric.a(zlib.o)
 .bss           0x33fc9c5c        0x0 lib_generic/libgeneric.a(div64.o)
 .bss           0x33fc9c5c        0x0 cpu/arm920t/s3c24x0/libs3c24x0.a(interrupts.o)
 .bss           0x33fc9c5c        0x0 cpu/arm920t/s3c24x0/libs3c24x0.a(speed.o)
 .bss           0x33fc9c5c       0x10 cpu/arm920t/s3c24x0/libs3c24x0.a(timer.o)
                0x33fc9c64                timer_load_val
 *fill*         0x33fc9c6c       0x94 00
 .bss           0x33fc9d00     0x1500 cpu/arm920t/s3c24x0/libs3c24x0.a(usb_ohci.o)
                0x33fc9dc8                urb_priv
                0x33fc9e9c                phcca
                0x33fc9f00                ghcca
                0x33fca000                ohci_dev
                0x33fca1a0                gtd
                0x33fcb1e0                ptd
                0x33fcb1e8                urb_finished
                0x33fcb1ec                devgone
                0x33fcb1f0                got_rhsc
 .bss           0x33fcb200      0x2a8 cpu/arm920t/s3c24x0/libs3c24x0.a(mmc.o)
 .bss           0x33fcb4a8        0x4 lib_arm/libarm.a(bootm.o)
 .bss           0x33fcb4ac        0x0 lib_arm/libarm.a(cache.o)
 .bss           0x33fcb4ac        0x0 lib_arm/libarm.a(cache-cp15.o)
 .bss           0x33fcb4ac        0x0 lib_arm/libarm.a(reset.o)
 .bss           0x33fcb4ac    0x30008 fs/fat/libfat.a(fat.o)
                0x33fcb4b4                get_vfatname_block
                0x33fdb4b4                do_fat_read_block
                0x33feb4b4                get_dentfromdir_block
 .bss           0x33ffb4b4        0x8 fs/jffs2/libjffs2.a(jffs2_1pass.o)
 .bss           0x33ffb4bc        0x0 fs/jffs2/libjffs2.a(compr_rtime.o)
 .bss           0x33ffb4bc        0x0 fs/jffs2/libjffs2.a(compr_rubin.o)
 .bss           0x33ffb4bc        0x0 fs/jffs2/libjffs2.a(compr_zlib.o)
 .bss           0x33ffb4bc        0x0 fs/jffs2/libjffs2.a(mini_inflate.o)
 .bss           0x33ffb4bc        0x0 disk/libdisk.a(part.o)
 .bss           0x33ffb4bc        0x0 disk/libdisk.a(part_dos.o)
 .bss           0x33ffb4bc        0x0 drivers/mtd/nand/libnand.a(nand_util.o)
 .bss           0x33ffb4bc       0xe0 drivers/net/libnet.a(dm9000x.o)
 .bss           0x33ffb59c        0x0 drivers/rtc/librtc.a(date.o)
 .bss           0x33ffb59c        0x0 drivers/rtc/librtc.a(s3c24x0_rtc.o)
 .bss           0x33ffb59c        0x0 cpu/arm920t/libarm920t.a(cpu.o)
 .bss           0x33ffb59c        0x0 /home/libo/arm/bootloader/u-boot/lib_arm/eabi_compat.o
 .bss           0x33ffb59c        0x0 /home/libo/arm/4.4.3/bin/../lib/gcc/arm-none-linux-gnueabi/4.4.3/libgcc.a(_udivsi3.o)
 .bss           0x33ffb59c        0x0 /home/libo/arm/4.4.3/bin/../lib/gcc/arm-none-linux-gnueabi/4.4.3/libgcc.a(_divsi3.o)
 .bss           0x33ffb59c        0x0 /home/libo/arm/4.4.3/bin/../lib/gcc/arm-none-linux-gnueabi/4.4.3/libgcc.a(_lshrdi3.o)
 .bss           0x33ffb59c        0x0 /home/libo/arm/4.4.3/bin/../lib/gcc/arm-none-linux-gnueabi/4.4.3/libgcc.a(_ashrdi3.o)
 .bss           0x33ffb59c        0x0 /home/libo/arm/4.4.3/bin/../lib/gcc/arm-none-linux-gnueabi/4.4.3/libgcc.a(_ashldi3.o)
 .bss           0x33ffb59c        0x0 /home/libo/arm/4.4.3/bin/../lib/gcc/arm-none-linux-gnueabi/4.4.3/libgcc.a(_dvmd_lnx.o)
                0x33ffb59c                . = ALIGN (0x4)
                0x33ffb59c                _end = .
Address of section .text set to 0x33f80000
LOAD cpu/arm920t/start.o
START GROUP
LOAD lib_generic/libgeneric.a
LOAD lib_generic/lzma/liblzma.a
LOAD lib_generic/lzo/liblzo.a
LOAD cpu/arm920t/libarm920t.a
LOAD cpu/arm920t/s3c24x0/libs3c24x0.a
LOAD lib_arm/libarm.a
LOAD fs/cramfs/libcramfs.a
LOAD fs/fat/libfat.a
LOAD fs/fdos/libfdos.a
LOAD fs/jffs2/libjffs2.a
LOAD fs/reiserfs/libreiserfs.a
LOAD fs/ext2/libext2fs.a
LOAD fs/yaffs2/libyaffs2.a
LOAD fs/ubifs/libubifs.a
LOAD net/libnet.a
LOAD disk/libdisk.a
LOAD drivers/bios_emulator/libatibiosemu.a
LOAD drivers/block/libblock.a
LOAD drivers/dma/libdma.a
LOAD drivers/fpga/libfpga.a
LOAD drivers/gpio/libgpio.a
LOAD drivers/hwmon/libhwmon.a
LOAD drivers/i2c/libi2c.a
LOAD drivers/input/libinput.a
LOAD drivers/misc/libmisc.a
LOAD drivers/mmc/libmmc.a
LOAD drivers/mtd/libmtd.a
LOAD drivers/mtd/nand/libnand.a
LOAD drivers/mtd/onenand/libonenand.a
LOAD drivers/mtd/ubi/libubi.a
LOAD drivers/mtd/spi/libspi_flash.a
LOAD drivers/net/libnet.a
LOAD drivers/net/phy/libphy.a
LOAD drivers/pci/libpci.a
LOAD drivers/pcmcia/libpcmcia.a
LOAD drivers/power/libpower.a
LOAD drivers/spi/libspi.a
LOAD drivers/rtc/librtc.a
LOAD drivers/serial/libserial.a
LOAD drivers/twserial/libtws.a
LOAD drivers/usb/gadget/libusb_gadget.a
LOAD drivers/usb/host/libusb_host.a
LOAD drivers/usb/musb/libusb_musb.a
LOAD drivers/usb/slave/libusb_slave.a
LOAD drivers/usb/phy/libusb_phy.a
LOAD drivers/video/libvideo.a
LOAD drivers/watchdog/libwatchdog.a
LOAD common/libcommon.a
LOAD libfdt/libfdt.a
LOAD api/libapi.a
LOAD post/libpost.a
LOAD board/tekkamanninja/mini2440/libmini2440.a
END GROUP
LOAD /home/libo/arm/bootloader/u-boot/lib_arm/eabi_compat.o
LOAD /home/libo/arm/4.4.3/bin/../lib/gcc/arm-none-linux-gnueabi/4.4.3/libgcc.a
OUTPUT(u-boot elf32-littlearm)

.ARM.attributes
                0x00000000       0x26
 .ARM.attributes
                0x00000000       0x17 cpu/arm920t/start.o
 .ARM.attributes
                0x00000017       0x17 board/tekkamanninja/mini2440/lowlevel_init.o
 .ARM.attributes
                0x0000002e       0x27 board/tekkamanninja/mini2440/nand_read.o
 .ARM.attributes
                0x00000055       0x27 lib_arm/libarm.a(board.o)
 .ARM.attributes
                0x0000007c       0x27 lib_arm/libarm.a(interrupts.o)
 .ARM.attributes
                0x000000a3       0x27 net/libnet.a(eth.o)
 .ARM.attributes
                0x000000ca       0x27 net/libnet.a(net.o)
 .ARM.attributes
                0x000000f1       0x27 net/libnet.a(nfs.o)
 .ARM.attributes
                0x00000118       0x27 net/libnet.a(rarp.o)
 .ARM.attributes
                0x0000013f       0x27 net/libnet.a(tftp.o)
 .ARM.attributes
                0x00000166       0x27 net/libnet.a(bootp.o)
 .ARM.attributes
                0x0000018d       0x27 drivers/i2c/libi2c.a(s3c24x0_i2c.o)
 .ARM.attributes
                0x000001b4       0x27 drivers/mtd/nand/libnand.a(nand.o)
 .ARM.attributes
                0x000001db       0x27 drivers/mtd/nand/libnand.a(nand_base.o)
 .ARM.attributes
                0x00000202       0x27 drivers/mtd/nand/libnand.a(nand_bbt.o)
 .ARM.attributes
                0x00000229       0x27 drivers/mtd/nand/libnand.a(nand_ecc.o)
 .ARM.attributes
                0x00000250       0x27 drivers/mtd/nand/libnand.a(nand_ids.o)
 .ARM.attributes
                0x00000277       0x27 drivers/mtd/nand/libnand.a(s3c2410_nand.o)
 .ARM.attributes
                0x0000029e       0x27 drivers/serial/libserial.a(serial_s3c24x0.o)
 .ARM.attributes
                0x000002c5       0x27 drivers/usb/slave/libusb_slave.a(usbinit.o)
 .ARM.attributes
                0x000002ec       0x27 drivers/usb/slave/libusb_slave.a(interrupt.o)
 .ARM.attributes
                0x00000313       0x27 drivers/usb/slave/libusb_slave.a(usblib.o)
 .ARM.attributes
                0x0000033a       0x27 drivers/usb/slave/libusb_slave.a(usbmain.o)
 .ARM.attributes
                0x00000361       0x27 drivers/usb/slave/libusb_slave.a(usbout.o)
 .ARM.attributes
                0x00000388       0x27 drivers/usb/slave/libusb_slave.a(usbsetup.o)
 .ARM.attributes
                0x000003af       0x27 drivers/usb/slave/libusb_slave.a(usbin.o)
 .ARM.attributes
                0x000003d6       0x27 common/libcommon.a(cmd_bdinfo.o)
 .ARM.attributes
                0x000003fd       0x27 common/libcommon.a(cmd_boot.o)
 .ARM.attributes
                0x00000424       0x27 common/libcommon.a(cmd_bootm.o)
 .ARM.attributes
                0x0000044b       0x27 common/libcommon.a(cmd_cache.o)
 .ARM.attributes
                0x00000472       0x27 common/libcommon.a(cmd_console.o)
 .ARM.attributes
                0x00000499       0x27 common/libcommon.a(cmd_date.o)
 .ARM.attributes
                0x000004c0       0x27 common/libcommon.a(cmd_echo.o)
 .ARM.attributes
                0x000004e7       0x27 common/libcommon.a(cmd_eeprom.o)
 .ARM.attributes
                0x0000050e       0x27 common/libcommon.a(cmd_elf.o)
 .ARM.attributes
                0x00000535       0x27 common/libcommon.a(cmd_exit.o)
 .ARM.attributes
                0x0000055c       0x27 common/libcommon.a(cmd_fat.o)
 .ARM.attributes
                0x00000583       0x27 common/libcommon.a(cmd_flash.o)
 .ARM.attributes
                0x000005aa       0x27 common/libcommon.a(cmd_help.o)
 .ARM.attributes
                0x000005d1       0x27 common/libcommon.a(cmd_i2c.o)
 .ARM.attributes
                0x000005f8       0x27 common/libcommon.a(cmd_itest.o)
 .ARM.attributes
                0x0000061f       0x27 common/libcommon.a(cmd_jffs2.o)
 .ARM.attributes
                0x00000646       0x27 common/libcommon.a(cmd_load.o)
 .ARM.attributes
                0x0000066d       0x27 common/libcommon.a(cmd_mem.o)
 .ARM.attributes
                0x00000694       0x27 common/libcommon.a(cmd_misc.o)
 .ARM.attributes
                0x000006bb       0x27 common/libcommon.a(cmd_mmc.o)
 .ARM.attributes
                0x000006e2       0x27 common/libcommon.a(cmd_nand.o)
 .ARM.attributes
                0x00000709       0x27 common/libcommon.a(cmd_net.o)
 .ARM.attributes
                0x00000730       0x27 common/libcommon.a(cmd_nvedit.o)
 .ARM.attributes
                0x00000757       0x27 common/libcommon.a(cmd_reginfo.o)
 .ARM.attributes
                0x0000077e       0x27 common/libcommon.a(cmd_source.o)
 .ARM.attributes
                0x000007a5       0x27 common/libcommon.a(cmd_test.o)
 .ARM.attributes
                0x000007cc       0x27 common/libcommon.a(cmd_usb.o)
 .ARM.attributes
                0x000007f3       0x27 common/libcommon.a(cmd_usbslave.o)
 .ARM.attributes
                0x0000081a       0x27 common/libcommon.a(cmd_version.o)
 .ARM.attributes
                0x00000841       0x27 common/libcommon.a(cmd_ximg.o)
 .ARM.attributes
                0x00000868       0x27 common/libcommon.a(command.o)
 .ARM.attributes
                0x0000088f       0x27 common/libcommon.a(console.o)
 .ARM.attributes
                0x000008b6       0x27 common/libcommon.a(dlmalloc.o)
 .ARM.attributes
                0x000008dd       0x27 common/libcommon.a(env_common.o)
 .ARM.attributes
                0x00000904       0x27 common/libcommon.a(env_nand.o)
 .ARM.attributes
                0x0000092b       0x27 common/libcommon.a(exports.o)
 .ARM.attributes
                0x00000952       0x27 common/libcommon.a(flash.o)
 .ARM.attributes
                0x00000979       0x27 common/libcommon.a(hush.o)
 .ARM.attributes
                0x000009a0       0x27 common/libcommon.a(image.o)
 .ARM.attributes
                0x000009c7       0x27 common/libcommon.a(main.o)
 .ARM.attributes
                0x000009ee       0x27 common/libcommon.a(s_record.o)
 .ARM.attributes
                0x00000a15       0x27 common/libcommon.a(stdio.o)
 .ARM.attributes
                0x00000a3c       0x27 common/libcommon.a(usb.o)
 .ARM.attributes
                0x00000a63       0x27 common/libcommon.a(usb_storage.o)
 .ARM.attributes
                0x00000a8a       0x27 common/libcommon.a(xyzModem.o)
 .ARM.attributes
                0x00000ab1       0x27 board/tekkamanninja/mini2440/libmini2440.a(mini2440.o)
 .ARM.attributes
                0x00000ad8       0x27 board/tekkamanninja/mini2440/libmini2440.a(flash.o)
 .ARM.attributes
                0x00000aff       0x27 lib_generic/libgeneric.a(crc16.o)
 .ARM.attributes
                0x00000b26       0x27 lib_generic/libgeneric.a(crc32.o)
 .ARM.attributes
                0x00000b4d       0x27 lib_generic/libgeneric.a(ctype.o)
 .ARM.attributes
                0x00000b74       0x27 lib_generic/libgeneric.a(display_options.o)
 .ARM.attributes
                0x00000b9b       0x27 lib_generic/libgeneric.a(gunzip.o)
 .ARM.attributes
                0x00000bc2       0x27 lib_generic/libgeneric.a(net_utils.o)
 .ARM.attributes
                0x00000be9       0x27 lib_generic/libgeneric.a(string.o)
 .ARM.attributes
                0x00000c10       0x27 lib_generic/libgeneric.a(time.o)
 .ARM.attributes
                0x00000c37       0x27 lib_generic/libgeneric.a(vsprintf.o)
 .ARM.attributes
                0x00000c5e       0x27 lib_generic/libgeneric.a(zlib.o)
 .ARM.attributes
                0x00000c85       0x27 lib_generic/libgeneric.a(div64.o)
 .ARM.attributes
                0x00000cac       0x27 cpu/arm920t/s3c24x0/libs3c24x0.a(interrupts.o)
 .ARM.attributes
                0x00000cd3       0x27 cpu/arm920t/s3c24x0/libs3c24x0.a(speed.o)
 .ARM.attributes
                0x00000cfa       0x27 cpu/arm920t/s3c24x0/libs3c24x0.a(timer.o)
 .ARM.attributes
                0x00000d21       0x27 cpu/arm920t/s3c24x0/libs3c24x0.a(usb_ohci.o)
 .ARM.attributes
                0x00000d48       0x27 cpu/arm920t/s3c24x0/libs3c24x0.a(mmc.o)
 .ARM.attributes
                0x00000d6f       0x27 lib_arm/libarm.a(bootm.o)
 .ARM.attributes
                0x00000d96       0x27 lib_arm/libarm.a(cache.o)
 .ARM.attributes
                0x00000dbd       0x27 lib_arm/libarm.a(cache-cp15.o)
 .ARM.attributes
                0x00000de4       0x27 lib_arm/libarm.a(reset.o)
 .ARM.attributes
                0x00000e0b       0x27 fs/fat/libfat.a(fat.o)
 .ARM.attributes
                0x00000e32       0x27 fs/jffs2/libjffs2.a(jffs2_1pass.o)
 .ARM.attributes
                0x00000e59       0x27 fs/jffs2/libjffs2.a(compr_rtime.o)
 .ARM.attributes
                0x00000e80       0x27 fs/jffs2/libjffs2.a(compr_rubin.o)
 .ARM.attributes
                0x00000ea7       0x27 fs/jffs2/libjffs2.a(compr_zlib.o)
 .ARM.attributes
                0x00000ece       0x27 fs/jffs2/libjffs2.a(mini_inflate.o)
 .ARM.attributes
                0x00000ef5       0x27 disk/libdisk.a(part.o)
 .ARM.attributes
                0x00000f1c       0x27 disk/libdisk.a(part_dos.o)
 .ARM.attributes
                0x00000f43       0x27 drivers/mtd/nand/libnand.a(nand_util.o)
 .ARM.attributes
                0x00000f6a       0x27 drivers/net/libnet.a(dm9000x.o)
 .ARM.attributes
                0x00000f91       0x27 drivers/rtc/librtc.a(date.o)
 .ARM.attributes
                0x00000fb8       0x27 drivers/rtc/librtc.a(s3c24x0_rtc.o)
 .ARM.attributes
                0x00000fdf       0x27 cpu/arm920t/libarm920t.a(cpu.o)
 .ARM.attributes
                0x00001006       0x27 /home/libo/arm/bootloader/u-boot/lib_arm/eabi_compat.o
 .ARM.attributes
                0x0000102d       0x1a /home/libo/arm/4.4.3/bin/../lib/gcc/arm-none-linux-gnueabi/4.4.3/libgcc.a(_udivsi3.o)
 .ARM.attributes
                0x00001047       0x1a /home/libo/arm/4.4.3/bin/../lib/gcc/arm-none-linux-gnueabi/4.4.3/libgcc.a(_divsi3.o)
 .ARM.attributes
                0x00001061       0x1a /home/libo/arm/4.4.3/bin/../lib/gcc/arm-none-linux-gnueabi/4.4.3/libgcc.a(_lshrdi3.o)
 .ARM.attributes
                0x0000107b       0x1a /home/libo/arm/4.4.3/bin/../lib/gcc/arm-none-linux-gnueabi/4.4.3/libgcc.a(_ashrdi3.o)
 .ARM.attributes
                0x00001095       0x1a /home/libo/arm/4.4.3/bin/../lib/gcc/arm-none-linux-gnueabi/4.4.3/libgcc.a(_ashldi3.o)
 .ARM.attributes
                0x000010af       0x1a /home/libo/arm/4.4.3/bin/../lib/gcc/arm-none-linux-gnueabi/4.4.3/libgcc.a(_dvmd_lnx.o)

.comment        0x00000000       0x18
 .comment       0x00000000       0x18 board/tekkamanninja/mini2440/nand_read.o
                                 0x19 (size before relaxing)
 .comment       0x00000000       0x19 lib_arm/libarm.a(board.o)
 .comment       0x00000000       0x19 lib_arm/libarm.a(interrupts.o)
 .comment       0x00000000       0x19 net/libnet.a(eth.o)
 .comment       0x00000000       0x19 net/libnet.a(net.o)
 .comment       0x00000000       0x19 net/libnet.a(nfs.o)
 .comment       0x00000000       0x19 net/libnet.a(rarp.o)
 .comment       0x00000000       0x19 net/libnet.a(tftp.o)
 .comment       0x00000000       0x19 net/libnet.a(bootp.o)
 .comment       0x00000000       0x19 drivers/i2c/libi2c.a(s3c24x0_i2c.o)
 .comment       0x00000000       0x19 drivers/mtd/nand/libnand.a(nand.o)
 .comment       0x00000000       0x19 drivers/mtd/nand/libnand.a(nand_base.o)
 .comment       0x00000000       0x19 drivers/mtd/nand/libnand.a(nand_bbt.o)
 .comment       0x00000000       0x19 drivers/mtd/nand/libnand.a(nand_ecc.o)
 .comment       0x00000000       0x19 drivers/mtd/nand/libnand.a(nand_ids.o)
 .comment       0x00000000       0x19 drivers/mtd/nand/libnand.a(s3c2410_nand.o)
 .comment       0x00000000       0x19 drivers/serial/libserial.a(serial_s3c24x0.o)
 .comment       0x00000000       0x19 drivers/usb/slave/libusb_slave.a(usbinit.o)
 .comment       0x00000000       0x19 drivers/usb/slave/libusb_slave.a(interrupt.o)
 .comment       0x00000000       0x19 drivers/usb/slave/libusb_slave.a(usblib.o)
 .comment       0x00000000       0x19 drivers/usb/slave/libusb_slave.a(usbmain.o)
 .comment       0x00000000       0x19 drivers/usb/slave/libusb_slave.a(usbout.o)
 .comment       0x00000000       0x19 drivers/usb/slave/libusb_slave.a(usbsetup.o)
 .comment       0x00000000       0x19 drivers/usb/slave/libusb_slave.a(usbin.o)
 .comment       0x00000000       0x19 common/libcommon.a(cmd_bdinfo.o)
 .comment       0x00000000       0x19 common/libcommon.a(cmd_boot.o)
 .comment       0x00000000       0x19 common/libcommon.a(cmd_bootm.o)
 .comment       0x00000000       0x19 common/libcommon.a(cmd_cache.o)
 .comment       0x00000000       0x19 common/libcommon.a(cmd_console.o)
 .comment       0x00000000       0x19 common/libcommon.a(cmd_date.o)
 .comment       0x00000000       0x19 common/libcommon.a(cmd_echo.o)
 .comment       0x00000000       0x19 common/libcommon.a(cmd_eeprom.o)
 .comment       0x00000000       0x19 common/libcommon.a(cmd_elf.o)
 .comment       0x00000000       0x19 common/libcommon.a(cmd_exit.o)
 .comment       0x00000000       0x19 common/libcommon.a(cmd_fat.o)
 .comment       0x00000000       0x19 common/libcommon.a(cmd_flash.o)
 .comment       0x00000000       0x19 common/libcommon.a(cmd_help.o)
 .comment       0x00000000       0x19 common/libcommon.a(cmd_i2c.o)
 .comment       0x00000000       0x19 common/libcommon.a(cmd_itest.o)
 .comment       0x00000000       0x19 common/libcommon.a(cmd_jffs2.o)
 .comment       0x00000000       0x19 common/libcommon.a(cmd_load.o)
 .comment       0x00000000       0x19 common/libcommon.a(cmd_mem.o)
 .comment       0x00000000       0x19 common/libcommon.a(cmd_misc.o)
 .comment       0x00000000       0x19 common/libcommon.a(cmd_mmc.o)
 .comment       0x00000000       0x19 common/libcommon.a(cmd_nand.o)
 .comment       0x00000000       0x19 common/libcommon.a(cmd_net.o)
 .comment       0x00000000       0x19 common/libcommon.a(cmd_nvedit.o)
 .comment       0x00000000       0x19 common/libcommon.a(cmd_reginfo.o)
 .comment       0x00000000       0x19 common/libcommon.a(cmd_source.o)
 .comment       0x00000000       0x19 common/libcommon.a(cmd_test.o)
 .comment       0x00000000       0x19 common/libcommon.a(cmd_usb.o)
 .comment       0x00000000       0x19 common/libcommon.a(cmd_usbslave.o)
 .comment       0x00000000       0x19 common/libcommon.a(cmd_version.o)
 .comment       0x00000000       0x19 common/libcommon.a(cmd_ximg.o)
 .comment       0x00000000       0x19 common/libcommon.a(command.o)
 .comment       0x00000000       0x19 common/libcommon.a(console.o)
 .comment       0x00000000       0x19 common/libcommon.a(dlmalloc.o)
 .comment       0x00000000       0x19 common/libcommon.a(env_common.o)
 .comment       0x00000000       0x19 common/libcommon.a(env_nand.o)
 .comment       0x00000000       0x19 common/libcommon.a(exports.o)
 .comment       0x00000000       0x19 common/libcommon.a(flash.o)
 .comment       0x00000000       0x19 common/libcommon.a(hush.o)
 .comment       0x00000000       0x19 common/libcommon.a(image.o)
 .comment       0x00000000       0x19 common/libcommon.a(main.o)
 .comment       0x00000000       0x19 common/libcommon.a(s_record.o)
 .comment       0x00000000       0x19 common/libcommon.a(stdio.o)
 .comment       0x00000000       0x19 common/libcommon.a(usb.o)
 .comment       0x00000000       0x19 common/libcommon.a(usb_storage.o)
 .comment       0x00000000       0x19 common/libcommon.a(xyzModem.o)
 .comment       0x00000000       0x19 board/tekkamanninja/mini2440/libmini2440.a(mini2440.o)
 .comment       0x00000000       0x19 board/tekkamanninja/mini2440/libmini2440.a(flash.o)
 .comment       0x00000000       0x19 lib_generic/libgeneric.a(crc16.o)
 .comment       0x00000000       0x19 lib_generic/libgeneric.a(crc32.o)
 .comment       0x00000000       0x19 lib_generic/libgeneric.a(ctype.o)
 .comment       0x00000000       0x19 lib_generic/libgeneric.a(display_options.o)
 .comment       0x00000000       0x19 lib_generic/libgeneric.a(gunzip.o)
 .comment       0x00000000       0x19 lib_generic/libgeneric.a(net_utils.o)
 .comment       0x00000000       0x19 lib_generic/libgeneric.a(string.o)
 .comment       0x00000000       0x19 lib_generic/libgeneric.a(time.o)
 .comment       0x00000000       0x19 lib_generic/libgeneric.a(vsprintf.o)
 .comment       0x00000000       0x19 lib_generic/libgeneric.a(zlib.o)
 .comment       0x00000000       0x19 lib_generic/libgeneric.a(div64.o)
 .comment       0x00000000       0x19 cpu/arm920t/s3c24x0/libs3c24x0.a(interrupts.o)
 .comment       0x00000000       0x19 cpu/arm920t/s3c24x0/libs3c24x0.a(speed.o)
 .comment       0x00000000       0x19 cpu/arm920t/s3c24x0/libs3c24x0.a(timer.o)
 .comment       0x00000000       0x19 cpu/arm920t/s3c24x0/libs3c24x0.a(usb_ohci.o)
 .comment       0x00000000       0x19 cpu/arm920t/s3c24x0/libs3c24x0.a(mmc.o)
 .comment       0x00000000       0x19 lib_arm/libarm.a(bootm.o)
 .comment       0x00000000       0x19 lib_arm/libarm.a(cache.o)
 .comment       0x00000000       0x19 lib_arm/libarm.a(cache-cp15.o)
 .comment       0x00000000       0x19 lib_arm/libarm.a(reset.o)
 .comment       0x00000000       0x19 fs/fat/libfat.a(fat.o)
 .comment       0x00000000       0x19 fs/jffs2/libjffs2.a(jffs2_1pass.o)
 .comment       0x00000000       0x19 fs/jffs2/libjffs2.a(compr_rtime.o)
 .comment       0x00000000       0x19 fs/jffs2/libjffs2.a(compr_rubin.o)
 .comment       0x00000000       0x19 fs/jffs2/libjffs2.a(compr_zlib.o)
 .comment       0x00000000       0x19 fs/jffs2/libjffs2.a(mini_inflate.o)
 .comment       0x00000000       0x19 disk/libdisk.a(part.o)
 .comment       0x00000000       0x19 disk/libdisk.a(part_dos.o)
 .comment       0x00000000       0x19 drivers/mtd/nand/libnand.a(nand_util.o)
 .comment       0x00000000       0x19 drivers/net/libnet.a(dm9000x.o)
 .comment       0x00000000       0x19 drivers/rtc/librtc.a(date.o)
 .comment       0x00000000       0x19 drivers/rtc/librtc.a(s3c24x0_rtc.o)
 .comment       0x00000000       0x19 cpu/arm920t/libarm920t.a(cpu.o)
 .comment       0x00000000       0x19 /home/libo/arm/bootloader/u-boot/lib_arm/eabi_compat.o

.note.GNU-stack
                0x00000000        0x0
 .note.GNU-stack
                0x00000000        0x0 board/tekkamanninja/mini2440/nand_read.o
 .note.GNU-stack
                0x00000000        0x0 lib_arm/libarm.a(board.o)
 .note.GNU-stack
                0x00000000        0x0 lib_arm/libarm.a(interrupts.o)
 .note.GNU-stack
                0x00000000        0x0 net/libnet.a(eth.o)
 .note.GNU-stack
                0x00000000        0x0 net/libnet.a(net.o)
 .note.GNU-stack
                0x00000000        0x0 net/libnet.a(nfs.o)
 .note.GNU-stack
                0x00000000        0x0 net/libnet.a(rarp.o)
 .note.GNU-stack
                0x00000000        0x0 net/libnet.a(tftp.o)
 .note.GNU-stack
                0x00000000        0x0 net/libnet.a(bootp.o)
 .note.GNU-stack
                0x00000000        0x0 drivers/i2c/libi2c.a(s3c24x0_i2c.o)
 .note.GNU-stack
                0x00000000        0x0 drivers/mtd/nand/libnand.a(nand.o)
 .note.GNU-stack
                0x00000000        0x0 drivers/mtd/nand/libnand.a(nand_base.o)
 .note.GNU-stack
                0x00000000        0x0 drivers/mtd/nand/libnand.a(nand_bbt.o)
 .note.GNU-stack
                0x00000000        0x0 drivers/mtd/nand/libnand.a(nand_ecc.o)
 .note.GNU-stack
                0x00000000        0x0 drivers/mtd/nand/libnand.a(nand_ids.o)
 .note.GNU-stack
                0x00000000        0x0 drivers/mtd/nand/libnand.a(s3c2410_nand.o)
 .note.GNU-stack
                0x00000000        0x0 drivers/serial/libserial.a(serial_s3c24x0.o)
 .note.GNU-stack
                0x00000000        0x0 drivers/usb/slave/libusb_slave.a(usbinit.o)
 .note.GNU-stack
                0x00000000        0x0 drivers/usb/slave/libusb_slave.a(interrupt.o)
 .note.GNU-stack
                0x00000000        0x0 drivers/usb/slave/libusb_slave.a(usblib.o)
 .note.GNU-stack
                0x00000000        0x0 drivers/usb/slave/libusb_slave.a(usbmain.o)
 .note.GNU-stack
                0x00000000        0x0 drivers/usb/slave/libusb_slave.a(usbout.o)
 .note.GNU-stack
                0x00000000        0x0 drivers/usb/slave/libusb_slave.a(usbsetup.o)
 .note.GNU-stack
                0x00000000        0x0 drivers/usb/slave/libusb_slave.a(usbin.o)
 .note.GNU-stack
                0x00000000        0x0 common/libcommon.a(cmd_bdinfo.o)
 .note.GNU-stack
                0x00000000        0x0 common/libcommon.a(cmd_boot.o)
 .note.GNU-stack
                0x00000000        0x0 common/libcommon.a(cmd_bootm.o)
 .note.GNU-stack
                0x00000000        0x0 common/libcommon.a(cmd_cache.o)
 .note.GNU-stack
                0x00000000        0x0 common/libcommon.a(cmd_console.o)
 .note.GNU-stack
                0x00000000        0x0 common/libcommon.a(cmd_date.o)
 .note.GNU-stack
                0x00000000        0x0 common/libcommon.a(cmd_echo.o)
 .note.GNU-stack
                0x00000000        0x0 common/libcommon.a(cmd_eeprom.o)
 .note.GNU-stack
                0x00000000        0x0 common/libcommon.a(cmd_elf.o)
 .note.GNU-stack
                0x00000000        0x0 common/libcommon.a(cmd_exit.o)
 .note.GNU-stack
                0x00000000        0x0 common/libcommon.a(cmd_fat.o)
 .note.GNU-stack
                0x00000000        0x0 common/libcommon.a(cmd_flash.o)
 .note.GNU-stack
                0x00000000        0x0 common/libcommon.a(cmd_help.o)
 .note.GNU-stack
                0x00000000        0x0 common/libcommon.a(cmd_i2c.o)
 .note.GNU-stack
                0x00000000        0x0 common/libcommon.a(cmd_itest.o)
 .note.GNU-stack
                0x00000000        0x0 common/libcommon.a(cmd_jffs2.o)
 .note.GNU-stack
                0x00000000        0x0 common/libcommon.a(cmd_load.o)
 .note.GNU-stack
                0x00000000        0x0 common/libcommon.a(cmd_mem.o)
 .note.GNU-stack
                0x00000000        0x0 common/libcommon.a(cmd_misc.o)
 .note.GNU-stack
                0x00000000        0x0 common/libcommon.a(cmd_mmc.o)
 .note.GNU-stack
                0x00000000        0x0 common/libcommon.a(cmd_nand.o)
 .note.GNU-stack
                0x00000000        0x0 common/libcommon.a(cmd_net.o)
 .note.GNU-stack
                0x00000000        0x0 common/libcommon.a(cmd_nvedit.o)
 .note.GNU-stack
                0x00000000        0x0 common/libcommon.a(cmd_reginfo.o)
 .note.GNU-stack
                0x00000000        0x0 common/libcommon.a(cmd_source.o)
 .note.GNU-stack
                0x00000000        0x0 common/libcommon.a(cmd_test.o)
 .note.GNU-stack
                0x00000000        0x0 common/libcommon.a(cmd_usb.o)
 .note.GNU-stack
                0x00000000        0x0 common/libcommon.a(cmd_usbslave.o)
 .note.GNU-stack
                0x00000000        0x0 common/libcommon.a(cmd_version.o)
 .note.GNU-stack
                0x00000000        0x0 common/libcommon.a(cmd_ximg.o)
 .note.GNU-stack
                0x00000000        0x0 common/libcommon.a(command.o)
 .note.GNU-stack
                0x00000000        0x0 common/libcommon.a(console.o)
 .note.GNU-stack
                0x00000000        0x0 common/libcommon.a(dlmalloc.o)
 .note.GNU-stack
                0x00000000        0x0 common/libcommon.a(env_common.o)
 .note.GNU-stack
                0x00000000        0x0 common/libcommon.a(env_nand.o)
 .note.GNU-stack
                0x00000000        0x0 common/libcommon.a(exports.o)
 .note.GNU-stack
                0x00000000        0x0 common/libcommon.a(flash.o)
 .note.GNU-stack
                0x00000000        0x0 common/libcommon.a(hush.o)
 .note.GNU-stack
                0x00000000        0x0 common/libcommon.a(image.o)
 .note.GNU-stack
                0x00000000        0x0 common/libcommon.a(main.o)
 .note.GNU-stack
                0x00000000        0x0 common/libcommon.a(s_record.o)
 .note.GNU-stack
                0x00000000        0x0 common/libcommon.a(stdio.o)
 .note.GNU-stack
                0x00000000        0x0 common/libcommon.a(usb.o)
 .note.GNU-stack
                0x00000000        0x0 common/libcommon.a(usb_storage.o)
 .note.GNU-stack
                0x00000000        0x0 common/libcommon.a(xyzModem.o)
 .note.GNU-stack
                0x00000000        0x0 board/tekkamanninja/mini2440/libmini2440.a(mini2440.o)
 .note.GNU-stack
                0x00000000        0x0 board/tekkamanninja/mini2440/libmini2440.a(flash.o)
 .note.GNU-stack
                0x00000000        0x0 lib_generic/libgeneric.a(crc16.o)
 .note.GNU-stack
                0x00000000        0x0 lib_generic/libgeneric.a(crc32.o)
 .note.GNU-stack
                0x00000000        0x0 lib_generic/libgeneric.a(ctype.o)
 .note.GNU-stack
                0x00000000        0x0 lib_generic/libgeneric.a(display_options.o)
 .note.GNU-stack
                0x00000000        0x0 lib_generic/libgeneric.a(gunzip.o)
 .note.GNU-stack
                0x00000000        0x0 lib_generic/libgeneric.a(net_utils.o)
 .note.GNU-stack
                0x00000000        0x0 lib_generic/libgeneric.a(string.o)
 .note.GNU-stack
                0x00000000        0x0 lib_generic/libgeneric.a(time.o)
 .note.GNU-stack
                0x00000000        0x0 lib_generic/libgeneric.a(vsprintf.o)
 .note.GNU-stack
                0x00000000        0x0 lib_generic/libgeneric.a(zlib.o)
 .note.GNU-stack
                0x00000000        0x0 lib_generic/libgeneric.a(div64.o)
 .note.GNU-stack
                0x00000000        0x0 cpu/arm920t/s3c24x0/libs3c24x0.a(interrupts.o)
 .note.GNU-stack
                0x00000000        0x0 cpu/arm920t/s3c24x0/libs3c24x0.a(speed.o)
 .note.GNU-stack
                0x00000000        0x0 cpu/arm920t/s3c24x0/libs3c24x0.a(timer.o)
 .note.GNU-stack
                0x00000000        0x0 cpu/arm920t/s3c24x0/libs3c24x0.a(usb_ohci.o)
 .note.GNU-stack
                0x00000000        0x0 cpu/arm920t/s3c24x0/libs3c24x0.a(mmc.o)
 .note.GNU-stack
                0x00000000        0x0 lib_arm/libarm.a(bootm.o)
 .note.GNU-stack
                0x00000000        0x0 lib_arm/libarm.a(cache.o)
 .note.GNU-stack
                0x00000000        0x0 lib_arm/libarm.a(cache-cp15.o)
 .note.GNU-stack
                0x00000000        0x0 lib_arm/libarm.a(reset.o)
 .note.GNU-stack
                0x00000000        0x0 fs/fat/libfat.a(fat.o)
 .note.GNU-stack
                0x00000000        0x0 fs/jffs2/libjffs2.a(jffs2_1pass.o)
 .note.GNU-stack
                0x00000000        0x0 fs/jffs2/libjffs2.a(compr_rtime.o)
 .note.GNU-stack
                0x00000000        0x0 fs/jffs2/libjffs2.a(compr_rubin.o)
 .note.GNU-stack
                0x00000000        0x0 fs/jffs2/libjffs2.a(compr_zlib.o)
 .note.GNU-stack
                0x00000000        0x0 fs/jffs2/libjffs2.a(mini_inflate.o)
 .note.GNU-stack
                0x00000000        0x0 disk/libdisk.a(part.o)
 .note.GNU-stack
                0x00000000        0x0 disk/libdisk.a(part_dos.o)
 .note.GNU-stack
                0x00000000        0x0 drivers/mtd/nand/libnand.a(nand_util.o)
 .note.GNU-stack
                0x00000000        0x0 drivers/net/libnet.a(dm9000x.o)
 .note.GNU-stack
                0x00000000        0x0 drivers/rtc/librtc.a(date.o)
 .note.GNU-stack
                0x00000000        0x0 drivers/rtc/librtc.a(s3c24x0_rtc.o)
 .note.GNU-stack
                0x00000000        0x0 cpu/arm920t/libarm920t.a(cpu.o)
 .note.GNU-stack
                0x00000000        0x0 /home/libo/arm/bootloader/u-boot/lib_arm/eabi_compat.o
 .note.GNU-stack
                0x00000000        0x0 /home/libo/arm/4.4.3/bin/../lib/gcc/arm-none-linux-gnueabi/4.4.3/libgcc.a(_udivsi3.o)
 .note.GNU-stack
                0x00000000        0x0 /home/libo/arm/4.4.3/bin/../lib/gcc/arm-none-linux-gnueabi/4.4.3/libgcc.a(_divsi3.o)
 .note.GNU-stack
                0x00000000        0x0 /home/libo/arm/4.4.3/bin/../lib/gcc/arm-none-linux-gnueabi/4.4.3/libgcc.a(_lshrdi3.o)
 .note.GNU-stack
                0x00000000        0x0 /home/libo/arm/4.4.3/bin/../lib/gcc/arm-none-linux-gnueabi/4.4.3/libgcc.a(_ashrdi3.o)
 .note.GNU-stack
                0x00000000        0x0 /home/libo/arm/4.4.3/bin/../lib/gcc/arm-none-linux-gnueabi/4.4.3/libgcc.a(_ashldi3.o)
 .note.GNU-stack
                0x00000000        0x0 /home/libo/arm/4.4.3/bin/../lib/gcc/arm-none-linux-gnueabi/4.4.3/libgcc.a(_dvmd_lnx.o)

.debug_line     0x00000000     0xdd3d
 .debug_line    0x00000000       0xf7 cpu/arm920t/start.o
 .debug_line    0x000000f7       0x4b board/tekkamanninja/mini2440/lowlevel_init.o
 .debug_line    0x00000142       0xd2 board/tekkamanninja/mini2440/nand_read.o
 .debug_line    0x00000214      0x1e2 lib_arm/libarm.a(board.o)
 .debug_line    0x000003f6      0x170 lib_arm/libarm.a(interrupts.o)
 .debug_line    0x00000566      0x1fd net/libnet.a(eth.o)
 .debug_line    0x00000763      0x5a2 net/libnet.a(net.o)
 .debug_line    0x00000d05      0x376 net/libnet.a(nfs.o)
 .debug_line    0x0000107b       0xeb net/libnet.a(rarp.o)
 .debug_line    0x00001166      0x277 net/libnet.a(tftp.o)
 .debug_line    0x000013dd      0x313 net/libnet.a(bootp.o)
 .debug_line    0x000016f0      0x2c0 drivers/i2c/libi2c.a(s3c24x0_i2c.o)
 .debug_line    0x000019b0      0x193 drivers/mtd/nand/libnand.a(nand.o)
 .debug_line    0x00001b43      0xab7 drivers/mtd/nand/libnand.a(nand_base.o)
 .debug_line    0x000025fa      0x4d5 drivers/mtd/nand/libnand.a(nand_bbt.o)
 .debug_line    0x00002acf      0x1ab drivers/mtd/nand/libnand.a(nand_ecc.o)
 .debug_line    0x00002c7a       0x68 drivers/mtd/nand/libnand.a(nand_ids.o)
 .debug_line    0x00002ce2      0x1ad drivers/mtd/nand/libnand.a(s3c2410_nand.o)
 .debug_line    0x00002e8f      0x19a drivers/serial/libserial.a(serial_s3c24x0.o)
 .debug_line    0x00003029      0x1b9 drivers/usb/slave/libusb_slave.a(usbinit.o)
 .debug_line    0x000031e2      0x16f drivers/usb/slave/libusb_slave.a(interrupt.o)
 .debug_line    0x00003351      0x183 drivers/usb/slave/libusb_slave.a(usblib.o)
 .debug_line    0x000034d4      0x101 drivers/usb/slave/libusb_slave.a(usbmain.o)
 .debug_line    0x000035d5      0x166 drivers/usb/slave/libusb_slave.a(usbout.o)
 .debug_line    0x0000373b      0x20b drivers/usb/slave/libusb_slave.a(usbsetup.o)
 .debug_line    0x00003946       0xd1 drivers/usb/slave/libusb_slave.a(usbin.o)
 .debug_line    0x00003a17      0x111 common/libcommon.a(cmd_bdinfo.o)
 .debug_line    0x00003b28       0xbc common/libcommon.a(cmd_boot.o)
 .debug_line    0x00003be4      0x3e6 common/libcommon.a(cmd_bootm.o)
 .debug_line    0x00003fca       0x95 common/libcommon.a(cmd_cache.o)
 .debug_line    0x0000405f       0xdd common/libcommon.a(cmd_console.o)
 .debug_line    0x0000413c      0x1b7 common/libcommon.a(cmd_date.o)
 .debug_line    0x000042f3       0x83 common/libcommon.a(cmd_echo.o)
 .debug_line    0x00004376      0x134 common/libcommon.a(cmd_eeprom.o)
 .debug_line    0x000044aa      0x1b2 common/libcommon.a(cmd_elf.o)
 .debug_line    0x0000465c       0x75 common/libcommon.a(cmd_exit.o)
 .debug_line    0x000046d1      0x124 common/libcommon.a(cmd_fat.o)
 .debug_line    0x000047f5      0x238 common/libcommon.a(cmd_flash.o)
 .debug_line    0x00004a2d       0x76 common/libcommon.a(cmd_help.o)
 .debug_line    0x00004aa3      0x32c common/libcommon.a(cmd_i2c.o)
 .debug_line    0x00004dcf      0x100 common/libcommon.a(cmd_itest.o)
 .debug_line    0x00004ecf      0x2eb common/libcommon.a(cmd_jffs2.o)
 .debug_line    0x000051ba      0x416 common/libcommon.a(cmd_load.o)
 .debug_line    0x000055d0      0x258 common/libcommon.a(cmd_mem.o)
 .debug_line    0x00005828       0xbb common/libcommon.a(cmd_misc.o)
 .debug_line    0x000058e3       0x8c common/libcommon.a(cmd_mmc.o)
 .debug_line    0x0000596f      0x388 common/libcommon.a(cmd_nand.o)
 .debug_line    0x00005cf7      0x140 common/libcommon.a(cmd_net.o)
 .debug_line    0x00005e37      0x2da common/libcommon.a(cmd_nvedit.o)
 .debug_line    0x00006111       0x77 common/libcommon.a(cmd_reginfo.o)
 .debug_line    0x00006188      0x193 common/libcommon.a(cmd_source.o)
 .debug_line    0x0000631b       0xc9 common/libcommon.a(cmd_test.o)
 .debug_line    0x000063e4      0x37f common/libcommon.a(cmd_usb.o)
 .debug_line    0x00006763      0x13d common/libcommon.a(cmd_usbslave.o)
 .debug_line    0x000068a0       0x75 common/libcommon.a(cmd_version.o)
 .debug_line    0x00006915      0x1a6 common/libcommon.a(cmd_ximg.o)
 .debug_line    0x00006abb      0x1d4 common/libcommon.a(command.o)
 .debug_line    0x00006c8f      0x27f common/libcommon.a(console.o)
 .debug_line    0x00006f0e      0x3d7 common/libcommon.a(dlmalloc.o)
 .debug_line    0x000072e5      0x192 common/libcommon.a(env_common.o)
 .debug_line    0x00007477      0x238 common/libcommon.a(env_nand.o)
 .debug_line    0x000076af      0x161 common/libcommon.a(exports.o)
 .debug_line    0x00007810      0x150 common/libcommon.a(flash.o)
 .debug_line    0x00007960      0x690 common/libcommon.a(hush.o)
 .debug_line    0x00007ff0      0x3a4 common/libcommon.a(image.o)
 .debug_line    0x00008394      0x392 common/libcommon.a(main.o)
 .debug_line    0x00008726       0xe4 common/libcommon.a(s_record.o)
 .debug_line    0x0000880a      0x16c common/libcommon.a(stdio.o)
 .debug_line    0x00008976      0x44a common/libcommon.a(usb.o)
 .debug_line    0x00008dc0      0x52c common/libcommon.a(usb_storage.o)
 .debug_line    0x000092ec      0x208 common/libcommon.a(xyzModem.o)
 .debug_line    0x000094f4      0x1ea board/tekkamanninja/mini2440/libmini2440.a(mini2440.o)
 .debug_line    0x000096de      0x1ca board/tekkamanninja/mini2440/libmini2440.a(flash.o)
 .debug_line    0x000098a8       0xb2 lib_generic/libgeneric.a(crc16.o)
 .debug_line    0x0000995a      0x12e lib_generic/libgeneric.a(crc32.o)
 .debug_line    0x00009a88       0x28 lib_generic/libgeneric.a(ctype.o)
 .debug_line    0x00009ab0      0x119 lib_generic/libgeneric.a(display_options.o)
 .debug_line    0x00009bc9       0xd0 lib_generic/libgeneric.a(gunzip.o)
 .debug_line    0x00009c99      0x136 lib_generic/libgeneric.a(net_utils.o)
 .debug_line    0x00009dcf      0x202 lib_generic/libgeneric.a(string.o)
 .debug_line    0x00009fd1       0x76 lib_generic/libgeneric.a(time.o)
 .debug_line    0x0000a047      0x3a6 lib_generic/libgeneric.a(vsprintf.o)
 .debug_line    0x0000a3ed      0x69c lib_generic/libgeneric.a(zlib.o)
 .debug_line    0x0000aa89       0xc7 lib_generic/libgeneric.a(div64.o)
 .debug_line    0x0000ab50      0x13c cpu/arm920t/s3c24x0/libs3c24x0.a(interrupts.o)
 .debug_line    0x0000ac8c      0x130 cpu/arm920t/s3c24x0/libs3c24x0.a(speed.o)
 .debug_line    0x0000adbc      0x223 cpu/arm920t/s3c24x0/libs3c24x0.a(timer.o)
 .debug_line    0x0000afdf      0x5c6 cpu/arm920t/s3c24x0/libs3c24x0.a(usb_ohci.o)
 .debug_line    0x0000b5a5      0x2c6 cpu/arm920t/s3c24x0/libs3c24x0.a(mmc.o)
 .debug_line    0x0000b86b      0x170 lib_arm/libarm.a(bootm.o)
 .debug_line    0x0000b9db       0x38 lib_arm/libarm.a(cache.o)
 .debug_line    0x0000ba13      0x154 lib_arm/libarm.a(cache-cp15.o)
 .debug_line    0x0000bb67       0x72 lib_arm/libarm.a(reset.o)
 .debug_line    0x0000bbd9      0x470 fs/fat/libfat.a(fat.o)
 .debug_line    0x0000c049      0x5f5 fs/jffs2/libjffs2.a(jffs2_1pass.o)
 .debug_line    0x0000c63e       0x9e fs/jffs2/libjffs2.a(compr_rtime.o)
 .debug_line    0x0000c6dc       0xc6 fs/jffs2/libjffs2.a(compr_rubin.o)
 .debug_line    0x0000c7a2       0x77 fs/jffs2/libjffs2.a(compr_zlib.o)
 .debug_line    0x0000c819      0x420 fs/jffs2/libjffs2.a(mini_inflate.o)
 .debug_line    0x0000cc39      0x18d disk/libdisk.a(part.o)
 .debug_line    0x0000cdc6      0x1a1 disk/libdisk.a(part_dos.o)
 .debug_line    0x0000cf67      0x36e drivers/mtd/nand/libnand.a(nand_util.o)
 .debug_line    0x0000d2d5      0x35b drivers/net/libnet.a(dm9000x.o)
 .debug_line    0x0000d630       0xb5 drivers/rtc/librtc.a(date.o)
 .debug_line    0x0000d6e5      0x1dc drivers/rtc/librtc.a(s3c24x0_rtc.o)
 .debug_line    0x0000d8c1       0x3e cpu/arm920t/libarm920t.a(cpu.o)
 .debug_line    0x0000d8ff       0x3f /home/libo/arm/bootloader/u-boot/lib_arm/eabi_compat.o
 .debug_line    0x0000d93e       0xbf /home/libo/arm/4.4.3/bin/../lib/gcc/arm-none-linux-gnueabi/4.4.3/libgcc.a(_udivsi3.o)
 .debug_line    0x0000d9fd       0xcb /home/libo/arm/4.4.3/bin/../lib/gcc/arm-none-linux-gnueabi/4.4.3/libgcc.a(_divsi3.o)
 .debug_line    0x0000dac8       0x9e /home/libo/arm/4.4.3/bin/../lib/gcc/arm-none-linux-gnueabi/4.4.3/libgcc.a(_lshrdi3.o)
 .debug_line    0x0000db66       0x9e /home/libo/arm/4.4.3/bin/../lib/gcc/arm-none-linux-gnueabi/4.4.3/libgcc.a(_ashrdi3.o)
 .debug_line    0x0000dc04       0x9e /home/libo/arm/4.4.3/bin/../lib/gcc/arm-none-linux-gnueabi/4.4.3/libgcc.a(_ashldi3.o)
 .debug_line    0x0000dca2       0x9b /home/libo/arm/4.4.3/bin/../lib/gcc/arm-none-linux-gnueabi/4.4.3/libgcc.a(_dvmd_lnx.o)

.debug_info     0x00000000    0x3b157
 .debug_info    0x00000000       0x5b cpu/arm920t/start.o
 .debug_info    0x0000005b       0x74 board/tekkamanninja/mini2440/lowlevel_init.o
 .debug_info    0x000000cf      0x2ac board/tekkamanninja/mini2440/nand_read.o
 .debug_info    0x0000037b      0x78d lib_arm/libarm.a(board.o)
 .debug_info    0x00000b08      0x413 lib_arm/libarm.a(interrupts.o)
 .debug_info    0x00000f1b      0x862 net/libnet.a(eth.o)
 .debug_info    0x0000177d     0x1674 net/libnet.a(net.o)
 .debug_info    0x00002df1      0xb82 net/libnet.a(nfs.o)
 .debug_info    0x00003973      0x251 net/libnet.a(rarp.o)
 .debug_info    0x00003bc4      0x515 net/libnet.a(tftp.o)
 .debug_info    0x000040d9      0xa45 net/libnet.a(bootp.o)
 .debug_info    0x00004b1e      0x9bf drivers/i2c/libi2c.a(s3c24x0_i2c.o)
 .debug_info    0x000054dd     0x129b drivers/mtd/nand/libnand.a(nand.o)
 .debug_info    0x00006778     0x3628 drivers/mtd/nand/libnand.a(nand_base.o)
 .debug_info    0x00009da0     0x2025 drivers/mtd/nand/libnand.a(nand_bbt.o)
 .debug_info    0x0000bdc5      0x9f1 drivers/mtd/nand/libnand.a(nand_ecc.o)
 .debug_info    0x0000c7b6      0x152 drivers/mtd/nand/libnand.a(nand_ids.o)
 .debug_info    0x0000c908     0x1279 drivers/mtd/nand/libnand.a(s3c2410_nand.o)
 .debug_info    0x0000db81      0x5e8 drivers/serial/libserial.a(serial_s3c24x0.o)
 .debug_info    0x0000e169      0x7b7 drivers/usb/slave/libusb_slave.a(usbinit.o)
 .debug_info    0x0000e920      0x75e drivers/usb/slave/libusb_slave.a(interrupt.o)
 .debug_info    0x0000f07e      0x88c drivers/usb/slave/libusb_slave.a(usblib.o)
 .debug_info    0x0000f90a      0x56c drivers/usb/slave/libusb_slave.a(usbmain.o)
 .debug_info    0x0000fe76      0x750 drivers/usb/slave/libusb_slave.a(usbout.o)
 .debug_info    0x000105c6      0xa4b drivers/usb/slave/libusb_slave.a(usbsetup.o)
 .debug_info    0x00011011      0x50e drivers/usb/slave/libusb_slave.a(usbin.o)
 .debug_info    0x0001151f      0x4a0 common/libcommon.a(cmd_bdinfo.o)
 .debug_info    0x000119bf      0x272 common/libcommon.a(cmd_boot.o)
 .debug_info    0x00011c31     0x144c common/libcommon.a(cmd_bootm.o)
 .debug_info    0x0001307d      0x264 common/libcommon.a(cmd_cache.o)
 .debug_info    0x000132e1      0x393 common/libcommon.a(cmd_console.o)
 .debug_info    0x00013674      0x64f common/libcommon.a(cmd_date.o)
 .debug_info    0x00013cc3      0x1fd common/libcommon.a(cmd_echo.o)
 .debug_info    0x00013ec0      0x448 common/libcommon.a(cmd_eeprom.o)
 .debug_info    0x00014308      0x6de common/libcommon.a(cmd_elf.o)
 .debug_info    0x000149e6      0x1d0 common/libcommon.a(cmd_exit.o)
 .debug_info    0x00014bb6      0x532 common/libcommon.a(cmd_fat.o)
 .debug_info    0x000150e8      0x87a common/libcommon.a(cmd_flash.o)
 .debug_info    0x00015962      0x1ef common/libcommon.a(cmd_help.o)
 .debug_info    0x00015b51      0x839 common/libcommon.a(cmd_i2c.o)
 .debug_info    0x0001638a      0x4af common/libcommon.a(cmd_itest.o)
 .debug_info    0x00016839     0x128c common/libcommon.a(cmd_jffs2.o)
 .debug_info    0x00017ac5      0xf48 common/libcommon.a(cmd_load.o)
 .debug_info    0x00018a0d      0xa84 common/libcommon.a(cmd_mem.o)
 .debug_info    0x00019491      0x1e8 common/libcommon.a(cmd_misc.o)
 .debug_info    0x00019679      0x1e3 common/libcommon.a(cmd_mmc.o)
 .debug_info    0x0001985c     0x1855 common/libcommon.a(cmd_nand.o)
 .debug_info    0x0001b0b1      0x622 common/libcommon.a(cmd_net.o)
 .debug_info    0x0001b6d3      0xa45 common/libcommon.a(cmd_nvedit.o)
 .debug_info    0x0001c118      0x1bb common/libcommon.a(cmd_reginfo.o)
 .debug_info    0x0001c2d3      0x4b1 common/libcommon.a(cmd_source.o)
 .debug_info    0x0001c784      0x2eb common/libcommon.a(cmd_test.o)
 .debug_info    0x0001ca6f      0xfd5 common/libcommon.a(cmd_usb.o)
 .debug_info    0x0001da44      0x28f common/libcommon.a(cmd_usbslave.o)
 .debug_info    0x0001dcd3      0x1db common/libcommon.a(cmd_version.o)
 .debug_info    0x0001deae      0x49f common/libcommon.a(cmd_ximg.o)
 .debug_info    0x0001e34d      0x982 common/libcommon.a(command.o)
 .debug_info    0x0001eccf      0xa76 common/libcommon.a(console.o)
 .debug_info    0x0001f745      0xd5d common/libcommon.a(dlmalloc.o)
 .debug_info    0x000204a2      0x4c9 common/libcommon.a(env_common.o)
 .debug_info    0x0002096b      0xd82 common/libcommon.a(env_nand.o)
 .debug_info    0x000216ed      0x2cf common/libcommon.a(exports.o)
 .debug_info    0x000219bc      0x386 common/libcommon.a(flash.o)
 .debug_info    0x00021d42     0x1abe common/libcommon.a(hush.o)
 .debug_info    0x00023800     0x1505 common/libcommon.a(image.o)
 .debug_info    0x00024d05      0xe37 common/libcommon.a(main.o)
 .debug_info    0x00025b3c      0x1ae common/libcommon.a(s_record.o)
 .debug_info    0x00025cea      0x586 common/libcommon.a(stdio.o)
 .debug_info    0x00026270     0x1768 common/libcommon.a(usb.o)
 .debug_info    0x000279d8     0x1649 common/libcommon.a(usb_storage.o)
 .debug_info    0x00029021      0x6dc common/libcommon.a(xyzModem.o)
 .debug_info    0x000296fd      0xa2c board/tekkamanninja/mini2440/libmini2440.a(mini2440.o)
 .debug_info    0x0002a129      0x3fb board/tekkamanninja/mini2440/libmini2440.a(flash.o)
 .debug_info    0x0002a524      0x10c lib_generic/libgeneric.a(crc16.o)
 .debug_info    0x0002a630      0x26a lib_generic/libgeneric.a(crc32.o)
 .debug_info    0x0002a89a       0x52 lib_generic/libgeneric.a(ctype.o)
 .debug_info    0x0002a8ec      0x25b lib_generic/libgeneric.a(display_options.o)
 .debug_info    0x0002ab47      0x3f3 lib_generic/libgeneric.a(gunzip.o)
 .debug_info    0x0002af3a      0x133 lib_generic/libgeneric.a(net_utils.o)
 .debug_info    0x0002b06d      0xae6 lib_generic/libgeneric.a(string.o)
 .debug_info    0x0002bb53       0xb2 lib_generic/libgeneric.a(time.o)
 .debug_info    0x0002bc05      0xb74 lib_generic/libgeneric.a(vsprintf.o)
 .debug_info    0x0002c779     0x1069 lib_generic/libgeneric.a(zlib.o)
 .debug_info    0x0002d7e2      0x12b lib_generic/libgeneric.a(div64.o)
 .debug_info    0x0002d90d      0x1ac cpu/arm920t/s3c24x0/libs3c24x0.a(interrupts.o)
 .debug_info    0x0002dab9      0x1f5 cpu/arm920t/s3c24x0/libs3c24x0.a(speed.o)
 .debug_info    0x0002dcae      0x590 cpu/arm920t/s3c24x0/libs3c24x0.a(timer.o)
 .debug_info    0x0002e23e     0x2197 cpu/arm920t/s3c24x0/libs3c24x0.a(usb_ohci.o)
 .debug_info    0x000303d5      0xe7a cpu/arm920t/s3c24x0/libs3c24x0.a(mmc.o)
 .debug_info    0x0003124f      0xa5a lib_arm/libarm.a(bootm.o)
 .debug_info    0x00031ca9       0xa4 lib_arm/libarm.a(cache.o)
 .debug_info    0x00031d4d      0x404 lib_arm/libarm.a(cache-cp15.o)
 .debug_info    0x00032151      0x1ad lib_arm/libarm.a(reset.o)
 .debug_info    0x000322fe     0x1358 fs/fat/libfat.a(fat.o)
 .debug_info    0x00033656     0x26f3 fs/jffs2/libjffs2.a(jffs2_1pass.o)
 .debug_info    0x00035d49      0x152 fs/jffs2/libjffs2.a(compr_rtime.o)
 .debug_info    0x00035e9b      0x207 fs/jffs2/libjffs2.a(compr_rubin.o)
 .debug_info    0x000360a2       0xdb fs/jffs2/libjffs2.a(compr_zlib.o)
 .debug_info    0x0003617d      0xd86 fs/jffs2/libjffs2.a(mini_inflate.o)
 .debug_info    0x00036f03      0x62e disk/libdisk.a(part.o)
 .debug_info    0x00037531      0x708 disk/libdisk.a(part_dos.o)
 .debug_info    0x00037c39     0x1605 drivers/mtd/nand/libnand.a(nand_util.o)
 .debug_info    0x0003923e      0xf12 drivers/net/libnet.a(dm9000x.o)
 .debug_info    0x0003a150      0x25a drivers/rtc/librtc.a(date.o)
 .debug_info    0x0003a3aa      0x62a drivers/rtc/librtc.a(s3c24x0_rtc.o)
 .debug_info    0x0003a9d4       0xc6 cpu/arm920t/libarm920t.a(cpu.o)
 .debug_info    0x0003aa9a       0x9f /home/libo/arm/bootloader/u-boot/lib_arm/eabi_compat.o
 .debug_info    0x0003ab39      0x105 /home/libo/arm/4.4.3/bin/../lib/gcc/arm-none-linux-gnueabi/4.4.3/libgcc.a(_udivsi3.o)
 .debug_info    0x0003ac3e      0x105 /home/libo/arm/4.4.3/bin/../lib/gcc/arm-none-linux-gnueabi/4.4.3/libgcc.a(_divsi3.o)
 .debug_info    0x0003ad43      0x105 /home/libo/arm/4.4.3/bin/../lib/gcc/arm-none-linux-gnueabi/4.4.3/libgcc.a(_lshrdi3.o)
 .debug_info    0x0003ae48      0x105 /home/libo/arm/4.4.3/bin/../lib/gcc/arm-none-linux-gnueabi/4.4.3/libgcc.a(_ashrdi3.o)
 .debug_info    0x0003af4d      0x105 /home/libo/arm/4.4.3/bin/../lib/gcc/arm-none-linux-gnueabi/4.4.3/libgcc.a(_ashldi3.o)
 .debug_info    0x0003b052      0x105 /home/libo/arm/4.4.3/bin/../lib/gcc/arm-none-linux-gnueabi/4.4.3/libgcc.a(_dvmd_lnx.o)

.debug_abbrev   0x00000000     0xccf0
 .debug_abbrev  0x00000000       0x14 cpu/arm920t/start.o
 .debug_abbrev  0x00000014       0x14 board/tekkamanninja/mini2440/lowlevel_init.o
 .debug_abbrev  0x00000028      0x1a1 board/tekkamanninja/mini2440/nand_read.o
 .debug_abbrev  0x000001c9      0x23e lib_arm/libarm.a(board.o)
 .debug_abbrev  0x00000407      0x184 lib_arm/libarm.a(interrupts.o)
 .debug_abbrev  0x0000058b      0x30d net/libnet.a(eth.o)
 .debug_abbrev  0x00000898      0x4bd net/libnet.a(net.o)
 .debug_abbrev  0x00000d55      0x2ce net/libnet.a(nfs.o)
 .debug_abbrev  0x00001023      0x11e net/libnet.a(rarp.o)
 .debug_abbrev  0x00001141      0x236 net/libnet.a(tftp.o)
 .debug_abbrev  0x00001377      0x30b net/libnet.a(bootp.o)
 .debug_abbrev  0x00001682      0x23d drivers/i2c/libi2c.a(s3c24x0_i2c.o)
 .debug_abbrev  0x000018bf      0x1f6 drivers/mtd/nand/libnand.a(nand.o)
 .debug_abbrev  0x00001ab5      0x411 drivers/mtd/nand/libnand.a(nand_base.o)
 .debug_abbrev  0x00001ec6      0x39c drivers/mtd/nand/libnand.a(nand_bbt.o)
 .debug_abbrev  0x00002262      0x1d0 drivers/mtd/nand/libnand.a(nand_ecc.o)
 .debug_abbrev  0x00002432       0x8c drivers/mtd/nand/libnand.a(nand_ids.o)
 .debug_abbrev  0x000024be      0x1c1 drivers/mtd/nand/libnand.a(s3c2410_nand.o)
 .debug_abbrev  0x0000267f      0x2f6 drivers/serial/libserial.a(serial_s3c24x0.o)
 .debug_abbrev  0x00002975      0x1c9 drivers/usb/slave/libusb_slave.a(usbinit.o)
 .debug_abbrev  0x00002b3e      0x1cb drivers/usb/slave/libusb_slave.a(interrupt.o)
 .debug_abbrev  0x00002d09      0x162 drivers/usb/slave/libusb_slave.a(usblib.o)
 .debug_abbrev  0x00002e6b      0x170 drivers/usb/slave/libusb_slave.a(usbmain.o)
 .debug_abbrev  0x00002fdb      0x1c1 drivers/usb/slave/libusb_slave.a(usbout.o)
 .debug_abbrev  0x0000319c      0x14d drivers/usb/slave/libusb_slave.a(usbsetup.o)
 .debug_abbrev  0x000032e9      0x137 drivers/usb/slave/libusb_slave.a(usbin.o)
 .debug_abbrev  0x00003420      0x1b4 common/libcommon.a(cmd_bdinfo.o)
 .debug_abbrev  0x000035d4       0xdf common/libcommon.a(cmd_boot.o)
 .debug_abbrev  0x000036b3      0x34a common/libcommon.a(cmd_bootm.o)
 .debug_abbrev  0x000039fd       0xee common/libcommon.a(cmd_cache.o)
 .debug_abbrev  0x00003aeb      0x185 common/libcommon.a(cmd_console.o)
 .debug_abbrev  0x00003c70      0x1fb common/libcommon.a(cmd_date.o)
 .debug_abbrev  0x00003e6b       0xf7 common/libcommon.a(cmd_echo.o)
 .debug_abbrev  0x00003f62      0x1a4 common/libcommon.a(cmd_eeprom.o)
 .debug_abbrev  0x00004106      0x1db common/libcommon.a(cmd_elf.o)
 .debug_abbrev  0x000042e1       0xd0 common/libcommon.a(cmd_exit.o)
 .debug_abbrev  0x000043b1      0x128 common/libcommon.a(cmd_fat.o)
 .debug_abbrev  0x000044d9      0x202 common/libcommon.a(cmd_flash.o)
 .debug_abbrev  0x000046db       0xd2 common/libcommon.a(cmd_help.o)
 .debug_abbrev  0x000047ad      0x232 common/libcommon.a(cmd_i2c.o)
 .debug_abbrev  0x000049df      0x189 common/libcommon.a(cmd_itest.o)
 .debug_abbrev  0x00004b68      0x2e9 common/libcommon.a(cmd_jffs2.o)
 .debug_abbrev  0x00004e51      0x41b common/libcommon.a(cmd_load.o)
 .debug_abbrev  0x0000526c      0x1c8 common/libcommon.a(cmd_mem.o)
 .debug_abbrev  0x00005434       0xd0 common/libcommon.a(cmd_misc.o)
 .debug_abbrev  0x00005504       0xdf common/libcommon.a(cmd_mmc.o)
 .debug_abbrev  0x000055e3      0x398 common/libcommon.a(cmd_nand.o)
 .debug_abbrev  0x0000597b      0x1d0 common/libcommon.a(cmd_net.o)
 .debug_abbrev  0x00005b4b      0x28a common/libcommon.a(cmd_nvedit.o)
 .debug_abbrev  0x00005dd5       0xd0 common/libcommon.a(cmd_reginfo.o)
 .debug_abbrev  0x00005ea5      0x1b5 common/libcommon.a(cmd_source.o)
 .debug_abbrev  0x0000605a      0x125 common/libcommon.a(cmd_test.o)
 .debug_abbrev  0x0000617f      0x2c2 common/libcommon.a(cmd_usb.o)
 .debug_abbrev  0x00006441      0x123 common/libcommon.a(cmd_usbslave.o)
 .debug_abbrev  0x00006564       0xe0 common/libcommon.a(cmd_version.o)
 .debug_abbrev  0x00006644      0x1b5 common/libcommon.a(cmd_ximg.o)
 .debug_abbrev  0x000067f9      0x31b common/libcommon.a(command.o)
 .debug_abbrev  0x00006b14      0x38b common/libcommon.a(console.o)
 .debug_abbrev  0x00006e9f      0x2f1 common/libcommon.a(dlmalloc.o)
 .debug_abbrev  0x00007190      0x268 common/libcommon.a(env_common.o)
 .debug_abbrev  0x000073f8      0x300 common/libcommon.a(env_nand.o)
 .debug_abbrev  0x000076f8      0x112 common/libcommon.a(exports.o)
 .debug_abbrev  0x0000780a      0x1e5 common/libcommon.a(flash.o)
 .debug_abbrev  0x000079ef      0x37c common/libcommon.a(hush.o)
 .debug_abbrev  0x00007d6b      0x3e9 common/libcommon.a(image.o)
 .debug_abbrev  0x00008154      0x330 common/libcommon.a(main.o)
 .debug_abbrev  0x00008484      0x10b common/libcommon.a(s_record.o)
 .debug_abbrev  0x0000858f      0x20b common/libcommon.a(stdio.o)
 .debug_abbrev  0x0000879a      0x36d common/libcommon.a(usb.o)
 .debug_abbrev  0x00008b07      0x317 common/libcommon.a(usb_storage.o)
 .debug_abbrev  0x00008e1e      0x2a1 common/libcommon.a(xyzModem.o)
 .debug_abbrev  0x000090bf      0x1ec board/tekkamanninja/mini2440/libmini2440.a(mini2440.o)
 .debug_abbrev  0x000092ab      0x1f6 board/tekkamanninja/mini2440/libmini2440.a(flash.o)
 .debug_abbrev  0x000094a1       0xc6 lib_generic/libgeneric.a(crc16.o)
 .debug_abbrev  0x00009567      0x10d lib_generic/libgeneric.a(crc32.o)
 .debug_abbrev  0x00009674       0x4b lib_generic/libgeneric.a(ctype.o)
 .debug_abbrev  0x000096bf      0x11e lib_generic/libgeneric.a(display_options.o)
 .debug_abbrev  0x000097dd      0x135 lib_generic/libgeneric.a(gunzip.o)
 .debug_abbrev  0x00009912       0xdb lib_generic/libgeneric.a(net_utils.o)
 .debug_abbrev  0x000099ed      0x316 lib_generic/libgeneric.a(string.o)
 .debug_abbrev  0x00009d03       0x73 lib_generic/libgeneric.a(time.o)
 .debug_abbrev  0x00009d76      0x318 lib_generic/libgeneric.a(vsprintf.o)
 .debug_abbrev  0x0000a08e      0x2c0 lib_generic/libgeneric.a(zlib.o)
 .debug_abbrev  0x0000a34e       0xab lib_generic/libgeneric.a(div64.o)
 .debug_abbrev  0x0000a3f9       0xf0 cpu/arm920t/s3c24x0/libs3c24x0.a(interrupts.o)
 .debug_abbrev  0x0000a4e9      0x10e cpu/arm920t/s3c24x0/libs3c24x0.a(speed.o)
 .debug_abbrev  0x0000a5f7      0x240 cpu/arm920t/s3c24x0/libs3c24x0.a(timer.o)
 .debug_abbrev  0x0000a837      0x337 cpu/arm920t/s3c24x0/libs3c24x0.a(usb_ohci.o)
 .debug_abbrev  0x0000ab6e      0x32c cpu/arm920t/s3c24x0/libs3c24x0.a(mmc.o)
 .debug_abbrev  0x0000ae9a      0x22a lib_arm/libarm.a(bootm.o)
 .debug_abbrev  0x0000b0c4       0x57 lib_arm/libarm.a(cache.o)
 .debug_abbrev  0x0000b11b      0x140 lib_arm/libarm.a(cache-cp15.o)
 .debug_abbrev  0x0000b25b       0xae lib_arm/libarm.a(reset.o)
 .debug_abbrev  0x0000b309      0x351 fs/fat/libfat.a(fat.o)
 .debug_abbrev  0x0000b65a      0x402 fs/jffs2/libjffs2.a(jffs2_1pass.o)
 .debug_abbrev  0x0000ba5c       0xd1 fs/jffs2/libjffs2.a(compr_rtime.o)
 .debug_abbrev  0x0000bb2d       0xeb fs/jffs2/libjffs2.a(compr_rubin.o)
 .debug_abbrev  0x0000bc18       0x6f fs/jffs2/libjffs2.a(compr_zlib.o)
 .debug_abbrev  0x0000bc87      0x30f fs/jffs2/libjffs2.a(mini_inflate.o)
 .debug_abbrev  0x0000bf96      0x1e6 disk/libdisk.a(part.o)
 .debug_abbrev  0x0000c17c      0x1ee disk/libdisk.a(part_dos.o)
 .debug_abbrev  0x0000c36a      0x2b2 drivers/mtd/nand/libnand.a(nand_util.o)
 .debug_abbrev  0x0000c61c      0x2b3 drivers/net/libnet.a(dm9000x.o)
 .debug_abbrev  0x0000c8cf      0x101 drivers/rtc/librtc.a(date.o)
 .debug_abbrev  0x0000c9d0      0x1c8 drivers/rtc/librtc.a(s3c24x0_rtc.o)
 .debug_abbrev  0x0000cb98       0x87 cpu/arm920t/libarm920t.a(cpu.o)
 .debug_abbrev  0x0000cc1f       0x59 /home/libo/arm/bootloader/u-boot/lib_arm/eabi_compat.o
 .debug_abbrev  0x0000cc78       0x14 /home/libo/arm/4.4.3/bin/../lib/gcc/arm-none-linux-gnueabi/4.4.3/libgcc.a(_udivsi3.o)
 .debug_abbrev  0x0000cc8c       0x14 /home/libo/arm/4.4.3/bin/../lib/gcc/arm-none-linux-gnueabi/4.4.3/libgcc.a(_divsi3.o)
 .debug_abbrev  0x0000cca0       0x14 /home/libo/arm/4.4.3/bin/../lib/gcc/arm-none-linux-gnueabi/4.4.3/libgcc.a(_lshrdi3.o)
 .debug_abbrev  0x0000ccb4       0x14 /home/libo/arm/4.4.3/bin/../lib/gcc/arm-none-linux-gnueabi/4.4.3/libgcc.a(_ashrdi3.o)
 .debug_abbrev  0x0000ccc8       0x14 /home/libo/arm/4.4.3/bin/../lib/gcc/arm-none-linux-gnueabi/4.4.3/libgcc.a(_ashldi3.o)
 .debug_abbrev  0x0000ccdc       0x14 /home/libo/arm/4.4.3/bin/../lib/gcc/arm-none-linux-gnueabi/4.4.3/libgcc.a(_dvmd_lnx.o)

.debug_aranges  0x00000000      0xde0
 .debug_aranges
                0x00000000       0x20 cpu/arm920t/start.o
 .debug_aranges
                0x00000020       0x20 board/tekkamanninja/mini2440/lowlevel_init.o
 .debug_aranges
                0x00000040       0x20 board/tekkamanninja/mini2440/nand_read.o
 .debug_aranges
                0x00000060       0x20 lib_arm/libarm.a(board.o)
 .debug_aranges
                0x00000080       0x20 lib_arm/libarm.a(interrupts.o)
 .debug_aranges
                0x000000a0       0x20 net/libnet.a(eth.o)
 .debug_aranges
                0x000000c0       0x20 net/libnet.a(net.o)
 .debug_aranges
                0x000000e0       0x20 net/libnet.a(nfs.o)
 .debug_aranges
                0x00000100       0x20 net/libnet.a(rarp.o)
 .debug_aranges
                0x00000120       0x20 net/libnet.a(tftp.o)
 .debug_aranges
                0x00000140       0x20 net/libnet.a(bootp.o)
 .debug_aranges
                0x00000160       0x20 drivers/i2c/libi2c.a(s3c24x0_i2c.o)
 .debug_aranges
                0x00000180       0x20 drivers/mtd/nand/libnand.a(nand.o)
 .debug_aranges
                0x000001a0       0x20 drivers/mtd/nand/libnand.a(nand_base.o)
 .debug_aranges
                0x000001c0       0x20 drivers/mtd/nand/libnand.a(nand_bbt.o)
 .debug_aranges
                0x000001e0       0x20 drivers/mtd/nand/libnand.a(nand_ecc.o)
 .debug_aranges
                0x00000200       0x20 drivers/mtd/nand/libnand.a(s3c2410_nand.o)
 .debug_aranges
                0x00000220       0x20 drivers/serial/libserial.a(serial_s3c24x0.o)
 .debug_aranges
                0x00000240       0x20 drivers/usb/slave/libusb_slave.a(usbinit.o)
 .debug_aranges
                0x00000260       0x20 drivers/usb/slave/libusb_slave.a(interrupt.o)
 .debug_aranges
                0x00000280       0x20 drivers/usb/slave/libusb_slave.a(usblib.o)
 .debug_aranges
                0x000002a0       0x20 drivers/usb/slave/libusb_slave.a(usbmain.o)
 .debug_aranges
                0x000002c0       0x20 drivers/usb/slave/libusb_slave.a(usbout.o)
 .debug_aranges
                0x000002e0       0x20 drivers/usb/slave/libusb_slave.a(usbsetup.o)
 .debug_aranges
                0x00000300       0x20 drivers/usb/slave/libusb_slave.a(usbin.o)
 .debug_aranges
                0x00000320       0x20 common/libcommon.a(cmd_bdinfo.o)
 .debug_aranges
                0x00000340       0x20 common/libcommon.a(cmd_boot.o)
 .debug_aranges
                0x00000360       0x20 common/libcommon.a(cmd_bootm.o)
 .debug_aranges
                0x00000380       0x20 common/libcommon.a(cmd_cache.o)
 .debug_aranges
                0x000003a0       0x20 common/libcommon.a(cmd_console.o)
 .debug_aranges
                0x000003c0       0x20 common/libcommon.a(cmd_date.o)
 .debug_aranges
                0x000003e0       0x20 common/libcommon.a(cmd_echo.o)
 .debug_aranges
                0x00000400       0x20 common/libcommon.a(cmd_eeprom.o)
 .debug_aranges
                0x00000420       0x20 common/libcommon.a(cmd_elf.o)
 .debug_aranges
                0x00000440       0x20 common/libcommon.a(cmd_exit.o)
 .debug_aranges
                0x00000460       0x20 common/libcommon.a(cmd_fat.o)
 .debug_aranges
                0x00000480       0x20 common/libcommon.a(cmd_flash.o)
 .debug_aranges
                0x000004a0       0x20 common/libcommon.a(cmd_help.o)
 .debug_aranges
                0x000004c0       0x20 common/libcommon.a(cmd_i2c.o)
 .debug_aranges
                0x000004e0       0x20 common/libcommon.a(cmd_itest.o)
 .debug_aranges
                0x00000500       0x20 common/libcommon.a(cmd_jffs2.o)
 .debug_aranges
                0x00000520       0x20 common/libcommon.a(cmd_load.o)
 .debug_aranges
                0x00000540       0x20 common/libcommon.a(cmd_mem.o)
 .debug_aranges
                0x00000560       0x20 common/libcommon.a(cmd_misc.o)
 .debug_aranges
                0x00000580       0x20 common/libcommon.a(cmd_mmc.o)
 .debug_aranges
                0x000005a0       0x20 common/libcommon.a(cmd_nand.o)
 .debug_aranges
                0x000005c0       0x20 common/libcommon.a(cmd_net.o)
 .debug_aranges
                0x000005e0       0x20 common/libcommon.a(cmd_nvedit.o)
 .debug_aranges
                0x00000600       0x20 common/libcommon.a(cmd_reginfo.o)
 .debug_aranges
                0x00000620       0x20 common/libcommon.a(cmd_source.o)
 .debug_aranges
                0x00000640       0x20 common/libcommon.a(cmd_test.o)
 .debug_aranges
                0x00000660       0x20 common/libcommon.a(cmd_usb.o)
 .debug_aranges
                0x00000680       0x20 common/libcommon.a(cmd_usbslave.o)
 .debug_aranges
                0x000006a0       0x20 common/libcommon.a(cmd_version.o)
 .debug_aranges
                0x000006c0       0x20 common/libcommon.a(cmd_ximg.o)
 .debug_aranges
                0x000006e0       0x20 common/libcommon.a(command.o)
 .debug_aranges
                0x00000700       0x20 common/libcommon.a(console.o)
 .debug_aranges
                0x00000720       0x20 common/libcommon.a(dlmalloc.o)
 .debug_aranges
                0x00000740       0x20 common/libcommon.a(env_common.o)
 .debug_aranges
                0x00000760       0x20 common/libcommon.a(env_nand.o)
 .debug_aranges
                0x00000780       0x20 common/libcommon.a(exports.o)
 .debug_aranges
                0x000007a0       0x20 common/libcommon.a(flash.o)
 .debug_aranges
                0x000007c0       0x20 common/libcommon.a(hush.o)
 .debug_aranges
                0x000007e0       0x20 common/libcommon.a(image.o)
 .debug_aranges
                0x00000800       0x20 common/libcommon.a(main.o)
 .debug_aranges
                0x00000820       0x20 common/libcommon.a(s_record.o)
 .debug_aranges
                0x00000840       0x20 common/libcommon.a(stdio.o)
 .debug_aranges
                0x00000860       0x20 common/libcommon.a(usb.o)
 .debug_aranges
                0x00000880       0x20 common/libcommon.a(usb_storage.o)
 .debug_aranges
                0x000008a0       0x20 common/libcommon.a(xyzModem.o)
 .debug_aranges
                0x000008c0       0x20 board/tekkamanninja/mini2440/libmini2440.a(mini2440.o)
 .debug_aranges
                0x000008e0       0x20 board/tekkamanninja/mini2440/libmini2440.a(flash.o)
 .debug_aranges
                0x00000900       0x20 lib_generic/libgeneric.a(crc16.o)
 .debug_aranges
                0x00000920       0x20 lib_generic/libgeneric.a(crc32.o)
 .debug_aranges
                0x00000940       0x20 lib_generic/libgeneric.a(display_options.o)
 .debug_aranges
                0x00000960       0x20 lib_generic/libgeneric.a(gunzip.o)
 .debug_aranges
                0x00000980       0x20 lib_generic/libgeneric.a(net_utils.o)
 .debug_aranges
                0x000009a0       0x20 lib_generic/libgeneric.a(string.o)
 .debug_aranges
                0x000009c0       0x20 lib_generic/libgeneric.a(time.o)
 .debug_aranges
                0x000009e0       0x20 lib_generic/libgeneric.a(vsprintf.o)
 .debug_aranges
                0x00000a00       0x20 lib_generic/libgeneric.a(zlib.o)
 .debug_aranges
                0x00000a20       0x20 lib_generic/libgeneric.a(div64.o)
 .debug_aranges
                0x00000a40       0x20 cpu/arm920t/s3c24x0/libs3c24x0.a(interrupts.o)
 .debug_aranges
                0x00000a60       0x20 cpu/arm920t/s3c24x0/libs3c24x0.a(speed.o)
 .debug_aranges
                0x00000a80       0x20 cpu/arm920t/s3c24x0/libs3c24x0.a(timer.o)
 .debug_aranges
                0x00000aa0       0x20 cpu/arm920t/s3c24x0/libs3c24x0.a(usb_ohci.o)
 .debug_aranges
                0x00000ac0       0x20 cpu/arm920t/s3c24x0/libs3c24x0.a(mmc.o)
 .debug_aranges
                0x00000ae0       0x20 lib_arm/libarm.a(bootm.o)
 .debug_aranges
                0x00000b00       0x20 lib_arm/libarm.a(cache.o)
 .debug_aranges
                0x00000b20       0x20 lib_arm/libarm.a(cache-cp15.o)
 .debug_aranges
                0x00000b40       0x20 lib_arm/libarm.a(reset.o)
 .debug_aranges
                0x00000b60       0x20 fs/fat/libfat.a(fat.o)
 .debug_aranges
                0x00000b80       0x20 fs/jffs2/libjffs2.a(jffs2_1pass.o)
 .debug_aranges
                0x00000ba0       0x20 fs/jffs2/libjffs2.a(compr_rtime.o)
 .debug_aranges
                0x00000bc0       0x20 fs/jffs2/libjffs2.a(compr_rubin.o)
 .debug_aranges
                0x00000be0       0x20 fs/jffs2/libjffs2.a(compr_zlib.o)
 .debug_aranges
                0x00000c00       0x20 fs/jffs2/libjffs2.a(mini_inflate.o)
 .debug_aranges
                0x00000c20       0x20 disk/libdisk.a(part.o)
 .debug_aranges
                0x00000c40       0x20 disk/libdisk.a(part_dos.o)
 .debug_aranges
                0x00000c60       0x20 drivers/mtd/nand/libnand.a(nand_util.o)
 .debug_aranges
                0x00000c80       0x20 drivers/net/libnet.a(dm9000x.o)
 .debug_aranges
                0x00000ca0       0x20 drivers/rtc/librtc.a(date.o)
 .debug_aranges
                0x00000cc0       0x20 drivers/rtc/librtc.a(s3c24x0_rtc.o)
 .debug_aranges
                0x00000ce0       0x20 cpu/arm920t/libarm920t.a(cpu.o)
 .debug_aranges
                0x00000d00       0x20 /home/libo/arm/bootloader/u-boot/lib_arm/eabi_compat.o
 .debug_aranges
                0x00000d20       0x20 /home/libo/arm/4.4.3/bin/../lib/gcc/arm-none-linux-gnueabi/4.4.3/libgcc.a(_udivsi3.o)
 .debug_aranges
                0x00000d40       0x20 /home/libo/arm/4.4.3/bin/../lib/gcc/arm-none-linux-gnueabi/4.4.3/libgcc.a(_divsi3.o)
 .debug_aranges
                0x00000d60       0x20 /home/libo/arm/4.4.3/bin/../lib/gcc/arm-none-linux-gnueabi/4.4.3/libgcc.a(_lshrdi3.o)
 .debug_aranges
                0x00000d80       0x20 /home/libo/arm/4.4.3/bin/../lib/gcc/arm-none-linux-gnueabi/4.4.3/libgcc.a(_ashrdi3.o)
 .debug_aranges
                0x00000da0       0x20 /home/libo/arm/4.4.3/bin/../lib/gcc/arm-none-linux-gnueabi/4.4.3/libgcc.a(_ashldi3.o)
 .debug_aranges
                0x00000dc0       0x20 /home/libo/arm/4.4.3/bin/../lib/gcc/arm-none-linux-gnueabi/4.4.3/libgcc.a(_dvmd_lnx.o)

.debug_frame    0x00000000     0x6708
 .debug_frame   0x00000000       0x64 board/tekkamanninja/mini2440/nand_read.o
 .debug_frame   0x00000064       0xb8 lib_arm/libarm.a(board.o)
 .debug_frame   0x0000011c      0x124 lib_arm/libarm.a(interrupts.o)
 .debug_frame   0x00000240      0x218 net/libnet.a(eth.o)
 .debug_frame   0x00000458      0x338 net/libnet.a(net.o)
 .debug_frame   0x00000790      0x2ac net/libnet.a(nfs.o)
 .debug_frame   0x00000a3c       0x74 net/libnet.a(rarp.o)
 .debug_frame   0x00000ab0       0xa4 net/libnet.a(tftp.o)
 .debug_frame   0x00000b54      0x14c net/libnet.a(bootp.o)
 .debug_frame   0x00000ca0       0xf8 drivers/i2c/libi2c.a(s3c24x0_i2c.o)
 .debug_frame   0x00000d98       0x30 drivers/mtd/nand/libnand.a(nand.o)
 .debug_frame   0x00000dc8      0x89c drivers/mtd/nand/libnand.a(nand_base.o)
 .debug_frame   0x00001664      0x1e4 drivers/mtd/nand/libnand.a(nand_bbt.o)
 .debug_frame   0x00001848       0x58 drivers/mtd/nand/libnand.a(nand_ecc.o)
 .debug_frame   0x000018a0       0x40 drivers/mtd/nand/libnand.a(s3c2410_nand.o)
 .debug_frame   0x000018e0       0xe8 drivers/serial/libserial.a(serial_s3c24x0.o)
 .debug_frame   0x000019c8       0xfc drivers/usb/slave/libusb_slave.a(usbinit.o)
 .debug_frame   0x00001ac4       0xdc drivers/usb/slave/libusb_slave.a(interrupt.o)
 .debug_frame   0x00001ba0       0xe4 drivers/usb/slave/libusb_slave.a(usblib.o)
 .debug_frame   0x00001c84       0x7c drivers/usb/slave/libusb_slave.a(usbmain.o)
 .debug_frame   0x00001d00       0x68 drivers/usb/slave/libusb_slave.a(usbout.o)
 .debug_frame   0x00001d68       0x58 drivers/usb/slave/libusb_slave.a(usbsetup.o)
 .debug_frame   0x00001dc0       0x3c drivers/usb/slave/libusb_slave.a(usbin.o)
 .debug_frame   0x00001dfc       0x30 common/libcommon.a(cmd_bdinfo.o)
 .debug_frame   0x00001e2c       0x4c common/libcommon.a(cmd_boot.o)
 .debug_frame   0x00001e78      0x204 common/libcommon.a(cmd_bootm.o)
 .debug_frame   0x0000207c       0x64 common/libcommon.a(cmd_cache.o)
 .debug_frame   0x000020e0       0x3c common/libcommon.a(cmd_console.o)
 .debug_frame   0x0000211c       0x5c common/libcommon.a(cmd_date.o)
 .debug_frame   0x00002178       0x38 common/libcommon.a(cmd_echo.o)
 .debug_frame   0x000021b0       0xc4 common/libcommon.a(cmd_eeprom.o)
 .debug_frame   0x00002274       0xc4 common/libcommon.a(cmd_elf.o)
 .debug_frame   0x00002338       0x2c common/libcommon.a(cmd_exit.o)
 .debug_frame   0x00002364       0x94 common/libcommon.a(cmd_fat.o)
 .debug_frame   0x000023f8      0x180 common/libcommon.a(cmd_flash.o)
 .debug_frame   0x00002578       0x38 common/libcommon.a(cmd_help.o)
 .debug_frame   0x000025b0      0x18c common/libcommon.a(cmd_i2c.o)
 .debug_frame   0x0000273c       0x74 common/libcommon.a(cmd_itest.o)
 .debug_frame   0x000027b0       0xd4 common/libcommon.a(cmd_jffs2.o)
 .debug_frame   0x00002884      0x220 common/libcommon.a(cmd_load.o)
 .debug_frame   0x00002aa4      0x1d4 common/libcommon.a(cmd_mem.o)
 .debug_frame   0x00002c78       0x38 common/libcommon.a(cmd_misc.o)
 .debug_frame   0x00002cb0       0x30 common/libcommon.a(cmd_mmc.o)
 .debug_frame   0x00002ce0       0xf8 common/libcommon.a(cmd_nand.o)
 .debug_frame   0x00002dd8       0xac common/libcommon.a(cmd_net.o)
 .debug_frame   0x00002e84      0x1d0 common/libcommon.a(cmd_nvedit.o)
 .debug_frame   0x00003054       0x20 common/libcommon.a(cmd_reginfo.o)
 .debug_frame   0x00003074       0x54 common/libcommon.a(cmd_source.o)
 .debug_frame   0x000030c8       0x5c common/libcommon.a(cmd_test.o)
 .debug_frame   0x00003124      0x1c4 common/libcommon.a(cmd_usb.o)
 .debug_frame   0x000032e8       0x34 common/libcommon.a(cmd_usbslave.o)
 .debug_frame   0x0000331c       0x2c common/libcommon.a(cmd_version.o)
 .debug_frame   0x00003348       0x40 common/libcommon.a(cmd_ximg.o)
 .debug_frame   0x00003388      0x120 common/libcommon.a(command.o)
 .debug_frame   0x000034a8      0x274 common/libcommon.a(console.o)
 .debug_frame   0x0000371c      0x174 common/libcommon.a(dlmalloc.o)
 .debug_frame   0x00003890       0xcc common/libcommon.a(env_common.o)
 .debug_frame   0x0000395c       0xe4 common/libcommon.a(env_nand.o)
 .debug_frame   0x00003a40       0x60 common/libcommon.a(exports.o)
 .debug_frame   0x00003aa0       0x94 common/libcommon.a(flash.o)
 .debug_frame   0x00003b34      0x3ac common/libcommon.a(hush.o)
 .debug_frame   0x00003ee0      0x250 common/libcommon.a(image.o)
 .debug_frame   0x00004130      0x164 common/libcommon.a(main.o)
 .debug_frame   0x00004294       0x54 common/libcommon.a(s_record.o)
 .debug_frame   0x000042e8       0xa0 common/libcommon.a(stdio.o)
 .debug_frame   0x00004388      0x570 common/libcommon.a(usb.o)
 .debug_frame   0x000048f8      0x2ec common/libcommon.a(usb_storage.o)
 .debug_frame   0x00004be4      0x154 common/libcommon.a(xyzModem.o)
 .debug_frame   0x00004d38       0x60 board/tekkamanninja/mini2440/libmini2440.a(mini2440.o)
 .debug_frame   0x00004d98       0xe0 board/tekkamanninja/mini2440/libmini2440.a(flash.o)
 .debug_frame   0x00004e78       0x2c lib_generic/libgeneric.a(crc16.o)
 .debug_frame   0x00004ea4       0x60 lib_generic/libgeneric.a(crc32.o)
 .debug_frame   0x00004f04       0x88 lib_generic/libgeneric.a(display_options.o)
 .debug_frame   0x00004f8c       0x84 lib_generic/libgeneric.a(gunzip.o)
 .debug_frame   0x00005010       0x3c lib_generic/libgeneric.a(net_utils.o)
 .debug_frame   0x0000504c      0x224 lib_generic/libgeneric.a(string.o)
 .debug_frame   0x00005270       0x30 lib_generic/libgeneric.a(time.o)
 .debug_frame   0x000052a0      0x1c0 lib_generic/libgeneric.a(vsprintf.o)
 .debug_frame   0x00005460      0x154 lib_generic/libgeneric.a(zlib.o)
 .debug_frame   0x000055b4       0x3c lib_generic/libgeneric.a(div64.o)
 .debug_frame   0x000055f0       0x30 cpu/arm920t/s3c24x0/libs3c24x0.a(interrupts.o)
 .debug_frame   0x00005620       0x84 cpu/arm920t/s3c24x0/libs3c24x0.a(speed.o)
 .debug_frame   0x000056a4      0x104 cpu/arm920t/s3c24x0/libs3c24x0.a(timer.o)
 .debug_frame   0x000057a8      0x168 cpu/arm920t/s3c24x0/libs3c24x0.a(usb_ohci.o)
 .debug_frame   0x00005910      0x118 cpu/arm920t/s3c24x0/libs3c24x0.a(mmc.o)
 .debug_frame   0x00005a28       0x3c lib_arm/libarm.a(bootm.o)
 .debug_frame   0x00005a64       0x20 lib_arm/libarm.a(cache.o)
 .debug_frame   0x00005a84       0x80 lib_arm/libarm.a(cache-cp15.o)
 .debug_frame   0x00005b04       0x2c lib_arm/libarm.a(reset.o)
 .debug_frame   0x00005b30      0x1a8 fs/fat/libfat.a(fat.o)
 .debug_frame   0x00005cd8      0x280 fs/jffs2/libjffs2.a(jffs2_1pass.o)
 .debug_frame   0x00005f58       0x3c fs/jffs2/libjffs2.a(compr_rtime.o)
 .debug_frame   0x00005f94       0x64 fs/jffs2/libjffs2.a(compr_rubin.o)
 .debug_frame   0x00005ff8       0x20 fs/jffs2/libjffs2.a(compr_zlib.o)
 .debug_frame   0x00006018      0x114 fs/jffs2/libjffs2.a(mini_inflate.o)
 .debug_frame   0x0000612c       0xbc disk/libdisk.a(part.o)
 .debug_frame   0x000061e8       0xc4 disk/libdisk.a(part_dos.o)
 .debug_frame   0x000062ac       0xdc drivers/mtd/nand/libnand.a(nand_util.o)
 .debug_frame   0x00006388      0x1b4 drivers/net/libnet.a(dm9000x.o)
 .debug_frame   0x0000653c       0x80 drivers/rtc/librtc.a(date.o)
 .debug_frame   0x000065bc       0x9c drivers/rtc/librtc.a(s3c24x0_rtc.o)
 .debug_frame   0x00006658       0x2c cpu/arm920t/libarm920t.a(cpu.o)
 .debug_frame   0x00006684       0x2c /home/libo/arm/bootloader/u-boot/lib_arm/eabi_compat.o
 .debug_frame   0x000066b0       0x2c /home/libo/arm/4.4.3/bin/../lib/gcc/arm-none-linux-gnueabi/4.4.3/libgcc.a(_udivsi3.o)
 .debug_frame   0x000066dc       0x2c /home/libo/arm/4.4.3/bin/../lib/gcc/arm-none-linux-gnueabi/4.4.3/libgcc.a(_divsi3.o)

.debug_loc      0x00000000    0x1e2fd
 .debug_loc     0x00000000      0x196 board/tekkamanninja/mini2440/nand_read.o
 .debug_loc     0x00000196       0xc6 lib_arm/libarm.a(board.o)
 .debug_loc     0x0000025c      0x1fd lib_arm/libarm.a(interrupts.o)
 .debug_loc     0x00000459      0x54e net/libnet.a(eth.o)
 .debug_loc     0x000009a7      0xaee net/libnet.a(net.o)
 .debug_loc     0x00001495      0x87c net/libnet.a(nfs.o)
 .debug_loc     0x00001d11       0xe5 net/libnet.a(rarp.o)
 .debug_loc     0x00001df6      0x263 net/libnet.a(tftp.o)
 .debug_loc     0x00002059      0x4d3 net/libnet.a(bootp.o)
 .debug_loc     0x0000252c      0x589 drivers/i2c/libi2c.a(s3c24x0_i2c.o)
 .debug_loc     0x00002ab5       0x1f drivers/mtd/nand/libnand.a(nand.o)
 .debug_loc     0x00002ad4     0x2884 drivers/mtd/nand/libnand.a(nand_base.o)
 .debug_loc     0x00005358     0x12d5 drivers/mtd/nand/libnand.a(nand_bbt.o)
 .debug_loc     0x0000662d      0x1bb drivers/mtd/nand/libnand.a(nand_ecc.o)
 .debug_loc     0x000067e8       0x75 drivers/mtd/nand/libnand.a(s3c2410_nand.o)
 .debug_loc     0x0000685d      0x14f drivers/serial/libserial.a(serial_s3c24x0.o)
 .debug_loc     0x000069ac      0x1cd drivers/usb/slave/libusb_slave.a(usbinit.o)
 .debug_loc     0x00006b79       0xae drivers/usb/slave/libusb_slave.a(interrupt.o)
 .debug_loc     0x00006c27       0x83 drivers/usb/slave/libusb_slave.a(usblib.o)
 .debug_loc     0x00006caa       0x91 drivers/usb/slave/libusb_slave.a(usbmain.o)
 .debug_loc     0x00006d3b       0xc9 drivers/usb/slave/libusb_slave.a(usbout.o)
 .debug_loc     0x00006e04       0xf6 drivers/usb/slave/libusb_slave.a(usbsetup.o)
 .debug_loc     0x00006efa       0x45 drivers/usb/slave/libusb_slave.a(usbin.o)
 .debug_loc     0x00006f3f       0x8a common/libcommon.a(cmd_bdinfo.o)
 .debug_loc     0x00006fc9      0x149 common/libcommon.a(cmd_boot.o)
 .debug_loc     0x00007112      0x9ee common/libcommon.a(cmd_bootm.o)
 .debug_loc     0x00007b00      0x1c3 common/libcommon.a(cmd_cache.o)
 .debug_loc     0x00007cc3       0x6b common/libcommon.a(cmd_console.o)
 .debug_loc     0x00007d2e      0x227 common/libcommon.a(cmd_date.o)
 .debug_loc     0x00007f55       0xd6 common/libcommon.a(cmd_echo.o)
 .debug_loc     0x0000802b      0x2ce common/libcommon.a(cmd_eeprom.o)
 .debug_loc     0x000082f9      0x2e5 common/libcommon.a(cmd_elf.o)
 .debug_loc     0x000085de       0xb5 common/libcommon.a(cmd_exit.o)
 .debug_loc     0x00008693      0x34b common/libcommon.a(cmd_fat.o)
 .debug_loc     0x000089de      0xaa3 common/libcommon.a(cmd_flash.o)
 .debug_loc     0x00009481       0xa2 common/libcommon.a(cmd_help.o)
 .debug_loc     0x00009523      0x79e common/libcommon.a(cmd_i2c.o)
 .debug_loc     0x00009cc1      0x2e7 common/libcommon.a(cmd_itest.o)
 .debug_loc     0x00009fa8      0x413 common/libcommon.a(cmd_jffs2.o)
 .debug_loc     0x0000a3bb      0xa0c common/libcommon.a(cmd_load.o)
 .debug_loc     0x0000adc7      0xca1 common/libcommon.a(cmd_mem.o)
 .debug_loc     0x0000ba68       0x8c common/libcommon.a(cmd_misc.o)
 .debug_loc     0x0000baf4       0xec common/libcommon.a(cmd_mmc.o)
 .debug_loc     0x0000bbe0      0x8fe common/libcommon.a(cmd_nand.o)
 .debug_loc     0x0000c4de      0x3ed common/libcommon.a(cmd_net.o)
 .debug_loc     0x0000c8cb      0x923 common/libcommon.a(cmd_nvedit.o)
 .debug_loc     0x0000d1ee       0x13 common/libcommon.a(cmd_reginfo.o)
 .debug_loc     0x0000d201      0x196 common/libcommon.a(cmd_source.o)
 .debug_loc     0x0000d397      0x190 common/libcommon.a(cmd_test.o)
 .debug_loc     0x0000d527      0x998 common/libcommon.a(cmd_usb.o)
 .debug_loc     0x0000debf       0xf8 common/libcommon.a(cmd_usbslave.o)
 .debug_loc     0x0000dfb7       0x6b common/libcommon.a(cmd_version.o)
 .debug_loc     0x0000e022      0x181 common/libcommon.a(cmd_ximg.o)
 .debug_loc     0x0000e1a3      0xa86 common/libcommon.a(command.o)
 .debug_loc     0x0000ec29      0x553 common/libcommon.a(console.o)
 .debug_loc     0x0000f17c     0x1321 common/libcommon.a(dlmalloc.o)
 .debug_loc     0x0001049d      0x266 common/libcommon.a(env_common.o)
 .debug_loc     0x00010703      0x1c0 common/libcommon.a(env_nand.o)
 .debug_loc     0x000108c3       0x2c common/libcommon.a(exports.o)
 .debug_loc     0x000108ef      0x360 common/libcommon.a(flash.o)
 .debug_loc     0x00010c4f     0x107e common/libcommon.a(hush.o)
 .debug_loc     0x00011ccd      0x815 common/libcommon.a(image.o)
 .debug_loc     0x000124e2     0x100b common/libcommon.a(main.o)
 .debug_loc     0x000134ed      0x227 common/libcommon.a(s_record.o)
 .debug_loc     0x00013714       0xf6 common/libcommon.a(stdio.o)
 .debug_loc     0x0001380a     0x12fd common/libcommon.a(usb.o)
 .debug_loc     0x00014b07      0xa72 common/libcommon.a(usb_storage.o)
 .debug_loc     0x00015579      0x4f5 common/libcommon.a(xyzModem.o)
 .debug_loc     0x00015a6e       0x58 board/tekkamanninja/mini2440/libmini2440.a(mini2440.o)
 .debug_loc     0x00015ac6      0x3a0 board/tekkamanninja/mini2440/libmini2440.a(flash.o)
 .debug_loc     0x00015e66       0x50 lib_generic/libgeneric.a(crc16.o)
 .debug_loc     0x00015eb6      0x182 lib_generic/libgeneric.a(crc32.o)
 .debug_loc     0x00016038      0x1bb lib_generic/libgeneric.a(display_options.o)
 .debug_loc     0x000161f3      0x28e lib_generic/libgeneric.a(gunzip.o)
 .debug_loc     0x00016481       0x84 lib_generic/libgeneric.a(net_utils.o)
 .debug_loc     0x00016505      0x701 lib_generic/libgeneric.a(string.o)
 .debug_loc     0x00016c06       0x3d lib_generic/libgeneric.a(time.o)
 .debug_loc     0x00016c43      0xb38 lib_generic/libgeneric.a(vsprintf.o)
 .debug_loc     0x0001777b     0x171d lib_generic/libgeneric.a(zlib.o)
 .debug_loc     0x00018e98       0xf6 lib_generic/libgeneric.a(div64.o)
 .debug_loc     0x00018f8e      0x114 cpu/arm920t/s3c24x0/libs3c24x0.a(speed.o)
 .debug_loc     0x000190a2      0x162 cpu/arm920t/s3c24x0/libs3c24x0.a(timer.o)
 .debug_loc     0x00019204      0xe04 cpu/arm920t/s3c24x0/libs3c24x0.a(usb_ohci.o)
 .debug_loc     0x0001a008      0x593 cpu/arm920t/s3c24x0/libs3c24x0.a(mmc.o)
 .debug_loc     0x0001a59b       0xaa lib_arm/libarm.a(bootm.o)
 .debug_loc     0x0001a645      0x1ce lib_arm/libarm.a(cache-cp15.o)
 .debug_loc     0x0001a813       0x6b lib_arm/libarm.a(reset.o)
 .debug_loc     0x0001a87e      0xdc7 fs/fat/libfat.a(fat.o)
 .debug_loc     0x0001b645     0x1014 fs/jffs2/libjffs2.a(jffs2_1pass.o)
 .debug_loc     0x0001c659      0x135 fs/jffs2/libjffs2.a(compr_rtime.o)
 .debug_loc     0x0001c78e      0x242 fs/jffs2/libjffs2.a(compr_rubin.o)
 .debug_loc     0x0001c9d0       0x4c fs/jffs2/libjffs2.a(compr_zlib.o)
 .debug_loc     0x0001ca1c      0x80b fs/jffs2/libjffs2.a(mini_inflate.o)
 .debug_loc     0x0001d227      0x1c8 disk/libdisk.a(part.o)
 .debug_loc     0x0001d3ef      0x363 disk/libdisk.a(part_dos.o)
 .debug_loc     0x0001d752      0x5b8 drivers/mtd/nand/libnand.a(nand_util.o)
 .debug_loc     0x0001dd0a      0x335 drivers/net/libnet.a(dm9000x.o)
 .debug_loc     0x0001e03f      0x18b drivers/rtc/librtc.a(date.o)
 .debug_loc     0x0001e1ca       0xd7 drivers/rtc/librtc.a(s3c24x0_rtc.o)
 .debug_loc     0x0001e2a1       0x1f cpu/arm920t/libarm920t.a(cpu.o)
 .debug_loc     0x0001e2c0       0x3d /home/libo/arm/bootloader/u-boot/lib_arm/eabi_compat.o

.debug_pubnames
                0x00000000     0x3d65
 .debug_pubnames
                0x00000000       0x23 board/tekkamanninja/mini2440/nand_read.o
 .debug_pubnames
                0x00000023       0x6f lib_arm/libarm.a(board.o)
 .debug_pubnames
                0x00000092       0xee lib_arm/libarm.a(interrupts.o)
 .debug_pubnames
                0x00000180      0x160 net/libnet.a(eth.o)
 .debug_pubnames
                0x000002e0      0x3ee net/libnet.a(net.o)
 .debug_pubnames
                0x000006ce       0x1f net/libnet.a(nfs.o)
 .debug_pubnames
                0x000006ed       0x2e net/libnet.a(rarp.o)
 .debug_pubnames
                0x0000071b       0x53 net/libnet.a(tftp.o)
 .debug_pubnames
                0x0000076e       0x82 net/libnet.a(bootp.o)
 .debug_pubnames
                0x000007f0       0x48 drivers/i2c/libi2c.a(s3c24x0_i2c.o)
 .debug_pubnames
                0x00000838       0x4a drivers/mtd/nand/libnand.a(nand.o)
 .debug_pubnames
                0x00000882       0x80 drivers/mtd/nand/libnand.a(nand_base.o)
 .debug_pubnames
                0x00000902       0x60 drivers/mtd/nand/libnand.a(nand_bbt.o)
 .debug_pubnames
                0x00000962       0x3f drivers/mtd/nand/libnand.a(nand_ecc.o)
 .debug_pubnames
                0x000009a1       0x38 drivers/mtd/nand/libnand.a(nand_ids.o)
 .debug_pubnames
                0x000009d9       0x34 drivers/mtd/nand/libnand.a(s3c2410_nand.o)
 .debug_pubnames
                0x00000a0d       0xd2 drivers/serial/libserial.a(serial_s3c24x0.o)
 .debug_pubnames
                0x00000adf      0x1c8 drivers/usb/slave/libusb_slave.a(usbinit.o)
 .debug_pubnames
                0x00000ca7       0xcc drivers/usb/slave/libusb_slave.a(interrupt.o)
 .debug_pubnames
                0x00000d73       0xaa drivers/usb/slave/libusb_slave.a(usblib.o)
 .debug_pubnames
                0x00000e1d       0x78 drivers/usb/slave/libusb_slave.a(usbmain.o)
 .debug_pubnames
                0x00000e95       0x50 drivers/usb/slave/libusb_slave.a(usbout.o)
 .debug_pubnames
                0x00000ee5      0x172 drivers/usb/slave/libusb_slave.a(usbsetup.o)
 .debug_pubnames
                0x00001057       0x51 drivers/usb/slave/libusb_slave.a(usbin.o)
 .debug_pubnames
                0x000010a8       0x3f common/libcommon.a(cmd_bdinfo.o)
 .debug_pubnames
                0x000010e7       0x56 common/libcommon.a(cmd_boot.o)
 .debug_pubnames
                0x0000113d      0x101 common/libcommon.a(cmd_bootm.o)
 .debug_pubnames
                0x0000123e       0x5e common/libcommon.a(cmd_cache.o)
 .debug_pubnames
                0x0000129c       0x3a common/libcommon.a(cmd_console.o)
 .debug_pubnames
                0x000012d6       0x54 common/libcommon.a(cmd_date.o)
 .debug_pubnames
                0x0000132a       0x34 common/libcommon.a(cmd_echo.o)
 .debug_pubnames
                0x0000135e       0x7a common/libcommon.a(cmd_eeprom.o)
 .debug_pubnames
                0x000013d8       0x9b common/libcommon.a(cmd_elf.o)
 .debug_pubnames
                0x00001473       0x34 common/libcommon.a(cmd_exit.o)
 .debug_pubnames
                0x000014a7       0x8d common/libcommon.a(cmd_fat.o)
 .debug_pubnames
                0x00001534       0xc8 common/libcommon.a(cmd_flash.o)
 .debug_pubnames
                0x000015fc       0x53 common/libcommon.a(cmd_help.o)
 .debug_pubnames
                0x0000164f       0xcb common/libcommon.a(cmd_i2c.o)
 .debug_pubnames
                0x0000171a       0x53 common/libcommon.a(cmd_itest.o)
 .debug_pubnames
                0x0000176d       0xcc common/libcommon.a(cmd_jffs2.o)
 .debug_pubnames
                0x00001839      0x1c2 common/libcommon.a(cmd_load.o)
 .debug_pubnames
                0x000019fb      0x1d1 common/libcommon.a(cmd_mem.o)
 .debug_pubnames
                0x00001bcc       0x36 common/libcommon.a(cmd_misc.o)
 .debug_pubnames
                0x00001c02       0x32 common/libcommon.a(cmd_mmc.o)
 .debug_pubnames
                0x00001c34       0x5b common/libcommon.a(cmd_nand.o)
 .debug_pubnames
                0x00001c8f       0xe8 common/libcommon.a(cmd_net.o)
 .debug_pubnames
                0x00001d77      0x142 common/libcommon.a(cmd_nvedit.o)
 .debug_pubnames
                0x00001eb9       0x3a common/libcommon.a(cmd_reginfo.o)
 .debug_pubnames
                0x00001ef3       0x43 common/libcommon.a(cmd_source.o)
 .debug_pubnames
                0x00001f36       0x7a common/libcommon.a(cmd_test.o)
 .debug_pubnames
                0x00001fb0      0x142 common/libcommon.a(cmd_usb.o)
 .debug_pubnames
                0x000020f2       0x5f common/libcommon.a(cmd_usbslave.o)
 .debug_pubnames
                0x00002151       0x3a common/libcommon.a(cmd_version.o)
 .debug_pubnames
                0x0000218b       0x3e common/libcommon.a(cmd_ximg.o)
 .debug_pubnames
                0x000021c9       0xa2 common/libcommon.a(command.o)
 .debug_pubnames
                0x0000226b      0x147 common/libcommon.a(console.o)
 .debug_pubnames
                0x000023b2       0xfd common/libcommon.a(dlmalloc.o)
 .debug_pubnames
                0x000024af       0xb4 common/libcommon.a(env_common.o)
 .debug_pubnames
                0x00002563       0x95 common/libcommon.a(env_nand.o)
 .debug_pubnames
                0x000025f8       0x3c common/libcommon.a(exports.o)
 .debug_pubnames
                0x00002634       0x53 common/libcommon.a(flash.o)
 .debug_pubnames
                0x00002687      0x11d common/libcommon.a(hush.o)
 .debug_pubnames
                0x000027a4      0x22c common/libcommon.a(image.o)
 .debug_pubnames
                0x000029d0       0xe1 common/libcommon.a(main.o)
 .debug_pubnames
                0x00002ab1       0x22 common/libcommon.a(s_record.o)
 .debug_pubnames
                0x00002ad3       0x96 common/libcommon.a(stdio.o)
 .debug_pubnames
                0x00002b69      0x339 common/libcommon.a(usb.o)
 .debug_pubnames
                0x00002ea2      0x166 common/libcommon.a(usb_storage.o)
 .debug_pubnames
                0x00003008       0xd5 common/libcommon.a(xyzModem.o)
 .debug_pubnames
                0x000030dd       0x5e board/tekkamanninja/mini2440/libmini2440.a(mini2440.o)
 .debug_pubnames
                0x0000313b       0x64 board/tekkamanninja/mini2440/libmini2440.a(flash.o)
 .debug_pubnames
                0x0000319f       0x20 lib_generic/libgeneric.a(crc16.o)
 .debug_pubnames
                0x000031bf       0x3b lib_generic/libgeneric.a(crc32.o)
 .debug_pubnames
                0x000031fa       0x1d lib_generic/libgeneric.a(ctype.o)
 .debug_pubnames
                0x00003217       0x46 lib_generic/libgeneric.a(display_options.o)
 .debug_pubnames
                0x0000325d       0x3d lib_generic/libgeneric.a(gunzip.o)
 .debug_pubnames
                0x0000329a       0x23 lib_generic/libgeneric.a(net_utils.o)
 .debug_pubnames
                0x000032bd      0x130 lib_generic/libgeneric.a(string.o)
 .debug_pubnames
                0x000033ed       0x1d lib_generic/libgeneric.a(time.o)
 .debug_pubnames
                0x0000340a       0x87 lib_generic/libgeneric.a(vsprintf.o)
 .debug_pubnames
                0x00003491       0xb4 lib_generic/libgeneric.a(zlib.o)
 .debug_pubnames
                0x00003545       0x21 lib_generic/libgeneric.a(div64.o)
 .debug_pubnames
                0x00003566       0x35 cpu/arm920t/s3c24x0/libs3c24x0.a(interrupts.o)
 .debug_pubnames
                0x0000359b       0x46 cpu/arm920t/s3c24x0/libs3c24x0.a(speed.o)
 .debug_pubnames
                0x000035e1       0xd5 cpu/arm920t/s3c24x0/libs3c24x0.a(timer.o)
 .debug_pubnames
                0x000036b6      0x128 cpu/arm920t/s3c24x0/libs3c24x0.a(usb_ohci.o)
 .debug_pubnames
                0x000037de       0x73 cpu/arm920t/s3c24x0/libs3c24x0.a(mmc.o)
 .debug_pubnames
                0x00003851       0x2c lib_arm/libarm.a(bootm.o)
 .debug_pubnames
                0x0000387d       0x22 lib_arm/libarm.a(cache.o)
 .debug_pubnames
                0x0000389f       0x80 lib_arm/libarm.a(cache-cp15.o)
 .debug_pubnames
                0x0000391f       0x1f lib_arm/libarm.a(reset.o)
 .debug_pubnames
                0x0000393e       0xc7 fs/fat/libfat.a(fat.o)
 .debug_pubnames
                0x00003a05       0x90 fs/jffs2/libjffs2.a(jffs2_1pass.o)
 .debug_pubnames
                0x00003a95       0x27 fs/jffs2/libjffs2.a(compr_rtime.o)
 .debug_pubnames
                0x00003abc       0x42 fs/jffs2/libjffs2.a(compr_rubin.o)
 .debug_pubnames
                0x00003afe       0x26 fs/jffs2/libjffs2.a(compr_zlib.o)
 .debug_pubnames
                0x00003b24       0x54 fs/jffs2/libjffs2.a(mini_inflate.o)
 .debug_pubnames
                0x00003b78       0x67 disk/libdisk.a(part.o)
 .debug_pubnames
                0x00003bdf       0x52 disk/libdisk.a(part_dos.o)
 .debug_pubnames
                0x00003c31       0x55 drivers/mtd/nand/libnand.a(nand_util.o)
 .debug_pubnames
                0x00003c86       0x28 drivers/net/libnet.a(dm9000x.o)
 .debug_pubnames
                0x00003cae       0x38 drivers/rtc/librtc.a(date.o)
 .debug_pubnames
                0x00003ce6       0x38 drivers/rtc/librtc.a(s3c24x0_rtc.o)
 .debug_pubnames
                0x00003d1e       0x2b cpu/arm920t/libarm920t.a(cpu.o)
 .debug_pubnames
                0x00003d49       0x1c /home/libo/arm/bootloader/u-boot/lib_arm/eabi_compat.o

.debug_ranges   0x00000000     0x32d0
 .debug_ranges  0x00000000       0x60 board/tekkamanninja/mini2440/nand_read.o
 .debug_ranges  0x00000060       0x18 lib_arm/libarm.a(board.o)
 .debug_ranges  0x00000078       0x58 net/libnet.a(eth.o)
 .debug_ranges  0x000000d0      0x150 net/libnet.a(net.o)
 .debug_ranges  0x00000220       0x70 net/libnet.a(nfs.o)
 .debug_ranges  0x00000290       0x30 net/libnet.a(tftp.o)
 .debug_ranges  0x000002c0       0x78 net/libnet.a(bootp.o)
 .debug_ranges  0x00000338      0x140 drivers/i2c/libi2c.a(s3c24x0_i2c.o)
 .debug_ranges  0x00000478       0x30 drivers/mtd/nand/libnand.a(nand.o)
 .debug_ranges  0x000004a8      0x1e8 drivers/mtd/nand/libnand.a(nand_base.o)
 .debug_ranges  0x00000690      0x1b0 drivers/mtd/nand/libnand.a(nand_bbt.o)
 .debug_ranges  0x00000840       0x30 drivers/serial/libserial.a(serial_s3c24x0.o)
 .debug_ranges  0x00000870       0xf0 drivers/usb/slave/libusb_slave.a(interrupt.o)
 .debug_ranges  0x00000960       0x30 drivers/usb/slave/libusb_slave.a(usbout.o)
 .debug_ranges  0x00000990       0x30 common/libcommon.a(cmd_bdinfo.o)
 .debug_ranges  0x000009c0       0x70 common/libcommon.a(cmd_bootm.o)
 .debug_ranges  0x00000a30      0x130 common/libcommon.a(cmd_date.o)
 .debug_ranges  0x00000b60       0x38 common/libcommon.a(cmd_eeprom.o)
 .debug_ranges  0x00000b98       0x18 common/libcommon.a(cmd_elf.o)
 .debug_ranges  0x00000bb0       0x20 common/libcommon.a(cmd_flash.o)
 .debug_ranges  0x00000bd0       0x38 common/libcommon.a(cmd_i2c.o)
 .debug_ranges  0x00000c08       0xe0 common/libcommon.a(cmd_jffs2.o)
 .debug_ranges  0x00000ce8      0x1e8 common/libcommon.a(cmd_load.o)
 .debug_ranges  0x00000ed0       0x38 common/libcommon.a(cmd_mem.o)
 .debug_ranges  0x00000f08       0x50 common/libcommon.a(cmd_nand.o)
 .debug_ranges  0x00000f58       0xb8 common/libcommon.a(cmd_nvedit.o)
 .debug_ranges  0x00001010       0x48 common/libcommon.a(cmd_usb.o)
 .debug_ranges  0x00001058       0xb0 common/libcommon.a(command.o)
 .debug_ranges  0x00001108       0xd0 common/libcommon.a(dlmalloc.o)
 .debug_ranges  0x000011d8       0x48 common/libcommon.a(env_common.o)
 .debug_ranges  0x00001220       0x40 common/libcommon.a(env_nand.o)
 .debug_ranges  0x00001260       0xb8 common/libcommon.a(flash.o)
 .debug_ranges  0x00001318      0x298 common/libcommon.a(hush.o)
 .debug_ranges  0x000015b0       0xa8 common/libcommon.a(image.o)
 .debug_ranges  0x00001658      0x108 common/libcommon.a(main.o)
 .debug_ranges  0x00001760       0x60 common/libcommon.a(stdio.o)
 .debug_ranges  0x000017c0       0x18 common/libcommon.a(usb.o)
 .debug_ranges  0x000017d8       0xf0 common/libcommon.a(usb_storage.o)
 .debug_ranges  0x000018c8       0x18 board/tekkamanninja/mini2440/libmini2440.a(mini2440.o)
 .debug_ranges  0x000018e0       0x38 board/tekkamanninja/mini2440/libmini2440.a(flash.o)
 .debug_ranges  0x00001918       0x18 lib_generic/libgeneric.a(net_utils.o)
 .debug_ranges  0x00001930       0x90 lib_generic/libgeneric.a(string.o)
 .debug_ranges  0x000019c0      0x220 lib_generic/libgeneric.a(vsprintf.o)
 .debug_ranges  0x00001be0       0x30 lib_generic/libgeneric.a(zlib.o)
 .debug_ranges  0x00001c10      0x320 cpu/arm920t/s3c24x0/libs3c24x0.a(timer.o)
 .debug_ranges  0x00001f30      0x4b8 cpu/arm920t/s3c24x0/libs3c24x0.a(usb_ohci.o)
 .debug_ranges  0x000023e8       0xb0 lib_arm/libarm.a(bootm.o)
 .debug_ranges  0x00002498      0x1c0 lib_arm/libarm.a(cache-cp15.o)
 .debug_ranges  0x00002658      0x238 fs/fat/libfat.a(fat.o)
 .debug_ranges  0x00002890      0x1c0 fs/jffs2/libjffs2.a(jffs2_1pass.o)
 .debug_ranges  0x00002a50       0x20 fs/jffs2/libjffs2.a(compr_rubin.o)
 .debug_ranges  0x00002a70      0x230 fs/jffs2/libjffs2.a(mini_inflate.o)
 .debug_ranges  0x00002ca0       0xa0 disk/libdisk.a(part_dos.o)
 .debug_ranges  0x00002d40      0x100 drivers/mtd/nand/libnand.a(nand_util.o)
 .debug_ranges  0x00002e40      0x3b8 drivers/net/libnet.a(dm9000x.o)
 .debug_ranges  0x000031f8       0xd8 drivers/rtc/librtc.a(s3c24x0_rtc.o)

.debug_str      0x00000000     0x97fa
 .debug_str     0x00000000      0x127 board/tekkamanninja/mini2440/nand_read.o
                                0x18a (size before relaxing)
 .debug_str     0x00000127      0x348 lib_arm/libarm.a(board.o)
                                0x404 (size before relaxing)
 .debug_str     0x0000046f       0xe5 lib_arm/libarm.a(interrupts.o)
                                0x283 (size before relaxing)
 .debug_str     0x00000554      0x266 net/libnet.a(eth.o)
                                0x3d3 (size before relaxing)
 .debug_str     0x000007ba      0x5de net/libnet.a(net.o)
                                0x824 (size before relaxing)
 .debug_str     0x00000d98      0x28a net/libnet.a(nfs.o)
                                0x45a (size before relaxing)
 .debug_str     0x00001022       0x4c net/libnet.a(rarp.o)
                                0x191 (size before relaxing)
 .debug_str     0x0000106e      0x1db net/libnet.a(tftp.o)
                                0x39a (size before relaxing)
 .debug_str     0x00001249      0x246 net/libnet.a(bootp.o)
                                0x486 (size before relaxing)
 .debug_str     0x0000148f      0x108 drivers/i2c/libi2c.a(s3c24x0_i2c.o)
                                0x380 (size before relaxing)
 .debug_str     0x00001597      0x528 drivers/mtd/nand/libnand.a(nand.o)
                                0x88a (size before relaxing)
 .debug_str     0x00001abf      0x73f drivers/mtd/nand/libnand.a(nand_base.o)
                                0xf33 (size before relaxing)
 .debug_str     0x000021fe      0x281 drivers/mtd/nand/libnand.a(nand_bbt.o)
                                0xa32 (size before relaxing)
 .debug_str     0x0000247f       0x8c drivers/mtd/nand/libnand.a(nand_ecc.o)
                                0x502 (size before relaxing)
 .debug_str     0x0000250b        0xb drivers/mtd/nand/libnand.a(nand_ids.o)
                                0x13b (size before relaxing)
 .debug_str     0x00002516      0x172 drivers/mtd/nand/libnand.a(s3c2410_nand.o)
                                0x8e5 (size before relaxing)
 .debug_str     0x00002688      0x144 drivers/serial/libserial.a(serial_s3c24x0.o)
                                0x2e8 (size before relaxing)
 .debug_str     0x000027cc      0x201 drivers/usb/slave/libusb_slave.a(usbinit.o)
                                0x475 (size before relaxing)
 .debug_str     0x000029cd       0xe8 drivers/usb/slave/libusb_slave.a(interrupt.o)
                                0x3c2 (size before relaxing)
 .debug_str     0x00002ab5      0x2cc drivers/usb/slave/libusb_slave.a(usblib.o)
                                0x444 (size before relaxing)
 .debug_str     0x00002d81       0x75 drivers/usb/slave/libusb_slave.a(usbmain.o)
                                0x33f (size before relaxing)
 .debug_str     0x00002df6       0x65 drivers/usb/slave/libusb_slave.a(usbout.o)
                                0x468 (size before relaxing)
 .debug_str     0x00002e5b      0x41e drivers/usb/slave/libusb_slave.a(usbsetup.o)
                                0x74b (size before relaxing)
 .debug_str     0x00003279       0x3f drivers/usb/slave/libusb_slave.a(usbin.o)
                                0x309 (size before relaxing)
 .debug_str     0x000032b8       0x99 common/libcommon.a(cmd_bdinfo.o)
                                0x20f (size before relaxing)
 .debug_str     0x00003351       0x3f common/libcommon.a(cmd_boot.o)
                                0x168 (size before relaxing)
 .debug_str     0x00003390      0x4b4 common/libcommon.a(cmd_bootm.o)
                                0x72f (size before relaxing)
 .debug_str     0x00003844       0x4f common/libcommon.a(cmd_cache.o)
                                0x161 (size before relaxing)
 .debug_str     0x00003893       0x6c common/libcommon.a(cmd_console.o)
                                0x1b1 (size before relaxing)
 .debug_str     0x000038ff       0xa9 common/libcommon.a(cmd_date.o)
                                0x27e (size before relaxing)
 .debug_str     0x000039a8       0x2b common/libcommon.a(cmd_echo.o)
                                0x13d (size before relaxing)
 .debug_str     0x000039d3       0x6e common/libcommon.a(cmd_eeprom.o)
                                0x1b6 (size before relaxing)
 .debug_str     0x00003a41      0x1b0 common/libcommon.a(cmd_elf.o)
                                0x362 (size before relaxing)
 .debug_str     0x00003bf1       0x25 common/libcommon.a(cmd_exit.o)
                                0x137 (size before relaxing)
 .debug_str     0x00003c16       0xce common/libcommon.a(cmd_fat.o)
                                0x239 (size before relaxing)
 .debug_str     0x00003ce4      0x154 common/libcommon.a(cmd_flash.o)
                                0x2eb (size before relaxing)
 .debug_str     0x00003e38       0x5c common/libcommon.a(cmd_help.o)
                                0x176 (size before relaxing)
 .debug_str     0x00003e94      0x151 common/libcommon.a(cmd_i2c.o)
                                0x2cd (size before relaxing)
 .debug_str     0x00003fe5       0x80 common/libcommon.a(cmd_itest.o)
                                0x1b2 (size before relaxing)
 .debug_str     0x00004065      0x1e3 common/libcommon.a(cmd_jffs2.o)
                                0x783 (size before relaxing)
 .debug_str     0x00004248      0x46c common/libcommon.a(cmd_load.o)
                                0x6e0 (size before relaxing)
 .debug_str     0x000046b4      0x1b9 common/libcommon.a(cmd_mem.o)
                                0x37a (size before relaxing)
 .debug_str     0x0000486d       0x27 common/libcommon.a(cmd_misc.o)
                                0x14b (size before relaxing)
 .debug_str     0x00004894       0x22 common/libcommon.a(cmd_mmc.o)
                                0x140 (size before relaxing)
 .debug_str     0x000048b6       0xec common/libcommon.a(cmd_nand.o)
                                0x9be (size before relaxing)
 .debug_str     0x000049a2       0xd2 common/libcommon.a(cmd_net.o)
                                0x2d0 (size before relaxing)
 .debug_str     0x00004a74      0x122 common/libcommon.a(cmd_nvedit.o)
                                0x38c (size before relaxing)
 .debug_str     0x00004b96       0x2e common/libcommon.a(cmd_reginfo.o)
                                0x140 (size before relaxing)
 .debug_str     0x00004bc4       0x35 common/libcommon.a(cmd_source.o)
                                0x276 (size before relaxing)
 .debug_str     0x00004bf9       0x73 common/libcommon.a(cmd_test.o)
                                0x18a (size before relaxing)
 .debug_str     0x00004c6c      0x33e common/libcommon.a(cmd_usb.o)
                                0x7c0 (size before relaxing)
 .debug_str     0x00004faa       0x4c common/libcommon.a(cmd_usbslave.o)
                                0x1bb (size before relaxing)
 .debug_str     0x00004ff6       0x2e common/libcommon.a(cmd_version.o)
                                0x14f (size before relaxing)
 .debug_str     0x00005024       0x2f common/libcommon.a(cmd_ximg.o)
                                0x27e (size before relaxing)
 .debug_str     0x00005053      0x159 common/libcommon.a(command.o)
                                0x2bc (size before relaxing)
 .debug_str     0x000051ac      0x14b common/libcommon.a(console.o)
                                0x4e5 (size before relaxing)
 .debug_str     0x000052f7      0x2d7 common/libcommon.a(dlmalloc.o)
                                0x4e3 (size before relaxing)
 .debug_str     0x000055ce       0xba common/libcommon.a(env_common.o)
                                0x264 (size before relaxing)
 .debug_str     0x00005688       0x83 common/libcommon.a(env_nand.o)
                                0x646 (size before relaxing)
 .debug_str     0x0000570b       0x1f common/libcommon.a(exports.o)
                                0x304 (size before relaxing)
 .debug_str     0x0000572a       0x46 common/libcommon.a(flash.o)
                                0x186 (size before relaxing)
 .debug_str     0x00005770      0x4dc common/libcommon.a(hush.o)
                                0x793 (size before relaxing)
 .debug_str     0x00005c4c      0x309 common/libcommon.a(image.o)
                                0x7ae (size before relaxing)
 .debug_str     0x00005f55      0x232 common/libcommon.a(main.o)
                                0x457 (size before relaxing)
 .debug_str     0x00006187       0x3a common/libcommon.a(s_record.o)
                                0x113 (size before relaxing)
 .debug_str     0x000061c1       0x6d common/libcommon.a(stdio.o)
                                0x27b (size before relaxing)
 .debug_str     0x0000622e      0x50f common/libcommon.a(usb.o)
                                0xa0e (size before relaxing)
 .debug_str     0x0000673d      0x423 common/libcommon.a(usb_storage.o)
                                0x9a3 (size before relaxing)
 .debug_str     0x00006b60      0x1a3 common/libcommon.a(xyzModem.o)
                                0x2d4 (size before relaxing)
 .debug_str     0x00006d03      0x182 board/tekkamanninja/mini2440/libmini2440.a(mini2440.o)
                                0x5c1 (size before relaxing)
 .debug_str     0x00006e85       0x54 board/tekkamanninja/mini2440/libmini2440.a(flash.o)
                                0x1cf (size before relaxing)
 .debug_str     0x00006ed9       0x49 lib_generic/libgeneric.a(crc16.o)
                                 0xf3 (size before relaxing)
 .debug_str     0x00006f22       0x45 lib_generic/libgeneric.a(crc32.o)
                                0x145 (size before relaxing)
 .debug_str     0x00006f67        0x8 lib_generic/libgeneric.a(ctype.o)
                                 0x56 (size before relaxing)
 .debug_str     0x00006f6f       0x37 lib_generic/libgeneric.a(display_options.o)
                                0x17f (size before relaxing)
 .debug_str     0x00006fa6       0xdf lib_generic/libgeneric.a(gunzip.o)
                                0x1df (size before relaxing)
 .debug_str     0x00007085       0x19 lib_generic/libgeneric.a(net_utils.o)
                                 0xff (size before relaxing)
 .debug_str     0x0000709e       0xbb lib_generic/libgeneric.a(string.o)
                                0x1d1 (size before relaxing)
 .debug_str     0x00007159        0x5 lib_generic/libgeneric.a(time.o)
                                 0xdb (size before relaxing)
 .debug_str     0x0000715e      0x11a lib_generic/libgeneric.a(vsprintf.o)
                                0x29d (size before relaxing)
 .debug_str     0x00007278      0x2c2 lib_generic/libgeneric.a(zlib.o)
                                0x583 (size before relaxing)
 .debug_str     0x0000753a       0x18 lib_generic/libgeneric.a(div64.o)
                                 0xfd (size before relaxing)
 .debug_str     0x00007552       0x57 cpu/arm920t/s3c24x0/libs3c24x0.a(interrupts.o)
                                0x187 (size before relaxing)
 .debug_str     0x000075a9       0x3e cpu/arm920t/s3c24x0/libs3c24x0.a(speed.o)
                                0x181 (size before relaxing)
 .debug_str     0x000075e7      0x11a cpu/arm920t/s3c24x0/libs3c24x0.a(timer.o)
                                0x270 (size before relaxing)
 .debug_str     0x00007701      0x4e9 cpu/arm920t/s3c24x0/libs3c24x0.a(usb_ohci.o)
                                0xc44 (size before relaxing)
 .debug_str     0x00007bea      0x424 cpu/arm920t/s3c24x0/libs3c24x0.a(mmc.o)
                                0x693 (size before relaxing)
 .debug_str     0x0000800e      0x231 lib_arm/libarm.a(bootm.o)
                                0x5a5 (size before relaxing)
 .debug_str     0x0000823f       0x1a lib_arm/libarm.a(cache.o)
                                 0xe0 (size before relaxing)
 .debug_str     0x00008259       0x84 lib_arm/libarm.a(cache-cp15.o)
                                0x16c (size before relaxing)
 .debug_str     0x000082dd        0x8 lib_arm/libarm.a(reset.o)
                                0x124 (size before relaxing)
 .debug_str     0x000082e5      0x44b fs/fat/libfat.a(fat.o)
                                0x67f (size before relaxing)
 .debug_str     0x00008730      0x62e fs/jffs2/libjffs2.a(jffs2_1pass.o)
                                0xc7c (size before relaxing)
 .debug_str     0x00008d5e       0x5a fs/jffs2/libjffs2.a(compr_rtime.o)
                                0x126 (size before relaxing)
 .debug_str     0x00008db8       0x46 fs/jffs2/libjffs2.a(compr_rubin.o)
                                0x14b (size before relaxing)
 .debug_str     0x00008dfe       0x1d fs/jffs2/libjffs2.a(compr_zlib.o)
                                0x103 (size before relaxing)
 .debug_str     0x00008e1b      0x21a fs/jffs2/libjffs2.a(mini_inflate.o)
                                0x2ef (size before relaxing)
 .debug_str     0x00009035       0xb6 disk/libdisk.a(part.o)
                                0x2d9 (size before relaxing)
 .debug_str     0x000090eb      0x13f disk/libdisk.a(part_dos.o)
                                0x2f0 (size before relaxing)
 .debug_str     0x0000922a      0x119 drivers/mtd/nand/libnand.a(nand_util.o)
                                0x9a8 (size before relaxing)
 .debug_str     0x00009343      0x29c drivers/net/libnet.a(dm9000x.o)
                                0x41c (size before relaxing)
 .debug_str     0x000095df       0x73 drivers/rtc/librtc.a(date.o)
                                0x168 (size before relaxing)
 .debug_str     0x00009652      0x139 drivers/rtc/librtc.a(s3c24x0_rtc.o)
                                0x2c1 (size before relaxing)
 .debug_str     0x0000978b       0x54 cpu/arm920t/libarm920t.a(cpu.o)
                                 0xe9 (size before relaxing)
 .debug_str     0x000097df       0x1b /home/libo/arm/bootloader/u-boot/lib_arm/eabi_compat.o
                                 0xd9 (size before relaxing)
